
Lab_Assignment_2.elf:     file format elf32-avr

Sections:
Idx Name          Size      VMA       LMA       File off  Algn
  0 .data         00000296  00800100  000041ec  00004280  2**0
                  CONTENTS, ALLOC, LOAD, DATA
  1 .text         000041ec  00000000  00000000  00000094  2**1
                  CONTENTS, ALLOC, LOAD, READONLY, CODE
  2 .bss          000000dd  00800396  00800396  00004516  2**0
                  ALLOC
  3 .stab         000034bc  00000000  00000000  00004518  2**2
                  CONTENTS, READONLY, DEBUGGING
  4 .stabstr      0000569f  00000000  00000000  000079d4  2**0
                  CONTENTS, READONLY, DEBUGGING
  5 .comment      0000005c  00000000  00000000  0000d073  2**0
                  CONTENTS, READONLY
  6 .debug_aranges 000000e8  00000000  00000000  0000d0cf  2**0
                  CONTENTS, READONLY, DEBUGGING
  7 .debug_info   000011c9  00000000  00000000  0000d1b7  2**0
                  CONTENTS, READONLY, DEBUGGING
  8 .debug_abbrev 00000534  00000000  00000000  0000e380  2**0
                  CONTENTS, READONLY, DEBUGGING
  9 .debug_line   000007a4  00000000  00000000  0000e8b4  2**0
                  CONTENTS, READONLY, DEBUGGING
 10 .debug_frame  00000388  00000000  00000000  0000f058  2**2
                  CONTENTS, READONLY, DEBUGGING
 11 .debug_str    0000051a  00000000  00000000  0000f3e0  2**0
                  CONTENTS, READONLY, DEBUGGING
 12 .debug_loc    00000ac0  00000000  00000000  0000f8fa  2**0
                  CONTENTS, READONLY, DEBUGGING
 13 .debug_ranges 000000c8  00000000  00000000  000103ba  2**0
                  CONTENTS, READONLY, DEBUGGING

Disassembly of section .text:

00000000 <__vectors>:
       0:	25 c1       	rjmp	.+586    	; 0x24c <__ctors_end>
       2:	00 00       	nop
       4:	41 c1       	rjmp	.+642    	; 0x288 <__bad_interrupt>
       6:	00 00       	nop
       8:	3f c1       	rjmp	.+638    	; 0x288 <__bad_interrupt>
       a:	00 00       	nop
       c:	3d c1       	rjmp	.+634    	; 0x288 <__bad_interrupt>
       e:	00 00       	nop
      10:	3b c1       	rjmp	.+630    	; 0x288 <__bad_interrupt>
      12:	00 00       	nop
      14:	39 c1       	rjmp	.+626    	; 0x288 <__bad_interrupt>
      16:	00 00       	nop
      18:	37 c1       	rjmp	.+622    	; 0x288 <__bad_interrupt>
      1a:	00 00       	nop
      1c:	74 c1       	rjmp	.+744    	; 0x306 <__vector_7>
      1e:	00 00       	nop
      20:	33 c1       	rjmp	.+614    	; 0x288 <__bad_interrupt>
      22:	00 00       	nop
      24:	31 c1       	rjmp	.+610    	; 0x288 <__bad_interrupt>
      26:	00 00       	nop
      28:	2f c1       	rjmp	.+606    	; 0x288 <__bad_interrupt>
      2a:	00 00       	nop
      2c:	0c 94 84 11 	jmp	0x2308	; 0x2308 <__vector_11>
      30:	2b c1       	rjmp	.+598    	; 0x288 <__bad_interrupt>
      32:	00 00       	nop
      34:	c1 c1       	rjmp	.+898    	; 0x3b8 <__vector_13>
      36:	00 00       	nop
      38:	27 c1       	rjmp	.+590    	; 0x288 <__bad_interrupt>
      3a:	00 00       	nop
      3c:	25 c1       	rjmp	.+586    	; 0x288 <__bad_interrupt>
      3e:	00 00       	nop
      40:	23 c1       	rjmp	.+582    	; 0x288 <__bad_interrupt>
      42:	00 00       	nop
      44:	21 c1       	rjmp	.+578    	; 0x288 <__bad_interrupt>
      46:	00 00       	nop
      48:	1f c1       	rjmp	.+574    	; 0x288 <__bad_interrupt>
      4a:	00 00       	nop
      4c:	1d c1       	rjmp	.+570    	; 0x288 <__bad_interrupt>
      4e:	00 00       	nop
      50:	0c 94 34 0f 	jmp	0x1e68	; 0x1e68 <__vector_20>
      54:	0c 94 2c 11 	jmp	0x2258	; 0x2258 <__vector_21>
      58:	17 c1       	rjmp	.+558    	; 0x288 <__bad_interrupt>
      5a:	00 00       	nop
      5c:	15 c1       	rjmp	.+554    	; 0x288 <__bad_interrupt>
      5e:	00 00       	nop
      60:	13 c1       	rjmp	.+550    	; 0x288 <__bad_interrupt>
      62:	00 00       	nop
      64:	11 c1       	rjmp	.+546    	; 0x288 <__bad_interrupt>
      66:	00 00       	nop
      68:	0f c1       	rjmp	.+542    	; 0x288 <__bad_interrupt>
      6a:	00 00       	nop
      6c:	0d c1       	rjmp	.+538    	; 0x288 <__bad_interrupt>
      6e:	00 00       	nop
      70:	0c 94 5e 0f 	jmp	0x1ebc	; 0x1ebc <__vector_28>
      74:	0c 94 54 11 	jmp	0x22a8	; 0x22a8 <__vector_29>
      78:	07 c1       	rjmp	.+526    	; 0x288 <__bad_interrupt>
      7a:	00 00       	nop
      7c:	05 c1       	rjmp	.+522    	; 0x288 <__bad_interrupt>
      7e:	00 00       	nop
      80:	03 c1       	rjmp	.+518    	; 0x288 <__bad_interrupt>
      82:	00 00       	nop
      84:	01 c1       	rjmp	.+514    	; 0x288 <__bad_interrupt>
      86:	00 00       	nop
      88:	ff c0       	rjmp	.+510    	; 0x288 <__bad_interrupt>
      8a:	00 00       	nop
      8c:	37 0a       	sbc	r3, r23
      8e:	56 0a       	sbc	r5, r22
      90:	56 0a       	sbc	r5, r22
      92:	0a 0a       	sbc	r0, r26
      94:	13 0a       	sbc	r1, r19
      96:	fd 09       	sbc	r31, r13
      98:	56 0a       	sbc	r5, r22
      9a:	56 0a       	sbc	r5, r22
      9c:	56 0a       	sbc	r5, r22
      9e:	37 0a       	sbc	r3, r23
      a0:	f0 09       	sbc	r31, r0
      a2:	56 0a       	sbc	r5, r22
      a4:	33 0a       	sbc	r3, r19
      a6:	84 09       	sbc	r24, r4
      a8:	56 0a       	sbc	r5, r22
      aa:	56 0a       	sbc	r5, r22
      ac:	56 0a       	sbc	r5, r22
      ae:	e3 09       	sbc	r30, r3
      b0:	56 0a       	sbc	r5, r22
      b2:	8f 09       	sbc	r24, r15
      b4:	b9 09       	sbc	r27, r9
      b6:	15 0a       	sbc	r1, r21
      b8:	56 0a       	sbc	r5, r22
      ba:	8b 09       	sbc	r24, r11
      bc:	56 0a       	sbc	r5, r22
      be:	56 0a       	sbc	r5, r22
      c0:	56 0a       	sbc	r5, r22
      c2:	56 0a       	sbc	r5, r22
      c4:	56 0a       	sbc	r5, r22
      c6:	56 0a       	sbc	r5, r22
      c8:	56 0a       	sbc	r5, r22
      ca:	56 0a       	sbc	r5, r22
      cc:	56 0a       	sbc	r5, r22
      ce:	56 0a       	sbc	r5, r22
      d0:	56 0a       	sbc	r5, r22
      d2:	0a 0a       	sbc	r0, r26
      d4:	13 0a       	sbc	r1, r19
      d6:	fd 09       	sbc	r31, r13
      d8:	56 0a       	sbc	r5, r22
      da:	56 0a       	sbc	r5, r22
      dc:	56 0a       	sbc	r5, r22
      de:	37 0a       	sbc	r3, r23
      e0:	f0 09       	sbc	r31, r0
      e2:	56 0a       	sbc	r5, r22
      e4:	33 0a       	sbc	r3, r19
      e6:	84 09       	sbc	r24, r4
      e8:	56 0a       	sbc	r5, r22
      ea:	56 0a       	sbc	r5, r22
      ec:	56 0a       	sbc	r5, r22
      ee:	e3 09       	sbc	r30, r3
      f0:	56 0a       	sbc	r5, r22
      f2:	8f 09       	sbc	r24, r15
      f4:	b9 09       	sbc	r27, r9
      f6:	15 0a       	sbc	r1, r21
      f8:	56 0a       	sbc	r5, r22
      fa:	8b 09       	sbc	r24, r11

000000fc <__trampolines_end>:
      fc:	6e 61       	ori	r22, 0x1E	; 30
      fe:	6e 00       	.word	0x006e	; ????

00000100 <__c.2159>:
     100:	69 6e 66 00                                         inf.

00000104 <__c.2354>:
     104:	63 64 69 6e 6f 70 73 75 78 58 5b 65 66 67 45 46     cdinopsuxX[efgEF
     114:	47 00                                               G.

00000116 <pstr_an>:
     116:	61 6e 00                                            an.

00000119 <pstr_nfinity>:
     119:	6e 66 69 6e 69 74 79 00                             nfinity.

00000121 <pwr_m10>:
     121:	cd cc cc 3d 0a d7 23 3c 17 b7 d1 38 77 cc 2b 32     ...=..#<...8w.+2
     131:	95 95 e6 24 1f b1 4f 0a                             ...$..O.

00000139 <pwr_p10>:
     139:	00 00 20 41 00 00 c8 42 00 40 1c 46 20 bc be 4c     .. A...B.@.F ..L
     149:	ca 1b 0e 5a ae c5 9d 74 00 40 7a 10 f3 5a 00 a0     ...Z...t.@z..Z..
     159:	72 4e 18 09 00 10 a5 d4 e8 00 00 e8 76 48 17 00     rN..........vH..
     169:	00 e4 0b 54 02 00 00 ca 9a 3b 00 00 00 e1 f5 05     ...T.....;......
     179:	00 00 80 96 98 00 00 00 40 42 0f 00 00 00 a0 86     ........@B......
     189:	01 00 00 00 10 27 00 00 00 00 e8 03 00 00 00 00     .....'..........
     199:	64 00 00 00 00 00 0a 00 00 00 00 00 01 00 00 00     d...............
     1a9:	00 00 2c 76 d8 88 dc 67 4f 08 23 df c1 df ae 59     ..,v...gO.#....Y
     1b9:	e1 b1 b7 96 e5 e3 e4 53 c6 3a e6 51 99 76 96 e8     .......S.:.Q.v..
     1c9:	e6 c2 84 26 eb 89 8c 9b 62 ed 40 7c 6f fc ef bc     ...&....b.@|o...
     1d9:	9c 9f 40 f2 ba a5 6f a5 f4 90 05 5a 2a f7 5c 93     ..@...o....Z*.\.
     1e9:	6b 6c f9 67 6d c1 1b fc e0 e4 0d 47 fe f5 20 e6     kl.gm......G.. .
     1f9:	b5 00 d0 ed 90 2e 03 00 94 35 77 05 00 80 84 1e     .........5w.....
     209:	08 00 00 20 4e 0a 00 00 00 c8 0c 33 33 33 33 0f     ... N......3333.
     219:	98 6e 12 83 11 41 ef 8d 21 14 89 3b e6 55 16 cf     .n...A..!..;.U..
     229:	fe e6 db 18 d1 84 4b 38 1b f7 7c 1d 90 1d a4 bb     ......K8..|.....
     239:	e4 24 20 32 84 72 5e 22 81 00 c9 f1 24 ec a1 e5     .$ 2.r^"....$...
     249:	3d 27 00                                            ='.

0000024c <__ctors_end>:
     24c:	11 24       	eor	r1, r1
     24e:	1f be       	out	0x3f, r1	; 63
     250:	cf ef       	ldi	r28, 0xFF	; 255
     252:	d0 e4       	ldi	r29, 0x40	; 64
     254:	de bf       	out	0x3e, r29	; 62
     256:	cd bf       	out	0x3d, r28	; 61

00000258 <__do_copy_data>:
     258:	13 e0       	ldi	r17, 0x03	; 3
     25a:	a0 e0       	ldi	r26, 0x00	; 0
     25c:	b1 e0       	ldi	r27, 0x01	; 1
     25e:	ec ee       	ldi	r30, 0xEC	; 236
     260:	f1 e4       	ldi	r31, 0x41	; 65
     262:	00 e0       	ldi	r16, 0x00	; 0
     264:	0b bf       	out	0x3b, r16	; 59
     266:	02 c0       	rjmp	.+4      	; 0x26c <__do_copy_data+0x14>
     268:	07 90       	elpm	r0, Z+
     26a:	0d 92       	st	X+, r0
     26c:	a6 39       	cpi	r26, 0x96	; 150
     26e:	b1 07       	cpc	r27, r17
     270:	d9 f7       	brne	.-10     	; 0x268 <__do_copy_data+0x10>

00000272 <__do_clear_bss>:
     272:	24 e0       	ldi	r18, 0x04	; 4
     274:	a6 e9       	ldi	r26, 0x96	; 150
     276:	b3 e0       	ldi	r27, 0x03	; 3
     278:	01 c0       	rjmp	.+2      	; 0x27c <.do_clear_bss_start>

0000027a <.do_clear_bss_loop>:
     27a:	1d 92       	st	X+, r1

0000027c <.do_clear_bss_start>:
     27c:	a3 37       	cpi	r26, 0x73	; 115
     27e:	b2 07       	cpc	r27, r18
     280:	e1 f7       	brne	.-8      	; 0x27a <.do_clear_bss_loop>
     282:	7b d4       	rcall	.+2294   	; 0xb7a <main>
     284:	0c 94 f4 20 	jmp	0x41e8	; 0x41e8 <_exit>

00000288 <__bad_interrupt>:
     288:	bb ce       	rjmp	.-650    	; 0x0 <__vectors>

0000028a <init_my_timers>:

void init_my_timers() {
	//////////////////////////////////////////////////////////////////////////
	//	PWM  - MOTOR1   - TIMER 2
	//////////////////////////////////////////////////////////////////////////
	DDRD |= (1 << PORTD7);
     28a:	57 9a       	sbi	0x0a, 7	; 10
	DDRC |= (1 << PORTC7);
     28c:	3f 9a       	sbi	0x07, 7	; 7
	TCCR2A = (1 << COM2A1) | (0 << COM2A0) | (0 << COM2B1) | (0 << COM2B0) | (0 << 3) | (0 << 2) | (1 << WGM21) | (1 << WGM20); //0x83;
     28e:	83 e8       	ldi	r24, 0x83	; 131
     290:	80 93 b0 00 	sts	0x00B0, r24
	TCCR2B = (0 << FOC2A) | (0 << FOC2B) | (0x0 << 5) | (0x0 << 4) | (0 << WGM22) |  (0 << CS22) | (1 << CS21) | (0 << CS20); //0x02;
     294:	22 e0       	ldi	r18, 0x02	; 2
     296:	20 93 b1 00 	sts	0x00B1, r18
	OCR2A = 0;
     29a:	10 92 b3 00 	sts	0x00B3, r1
	//	PID Controller  - TIMER 1
	//////////////////////////////////////////////////////////////////////////
	// Compare Output Mode, COM11:0 = 11
	// WGM mode 10 PWM, Phase Correct, WGM13:2:1:0 = 1010
	// Clock speed (Prescalar 1024) CS12:1:0 = 101
	TCCR1A = 0x80;//(1<<COM1A1) | (0<<COM1A0) | (0<<COM1B1) | (0<<COM1B0) | (0x0<<3) | (0x0<<2) | (0<<WGM11) | (0<<WGM10);
     29e:	80 e8       	ldi	r24, 0x80	; 128
     2a0:	80 93 80 00 	sts	0x0080, r24
	TCCR1B = 0x0A;//(0<<ICNC1) | (0<<ICES1) | (0x0<<5) | (0<<WGM13) | (1<<WGM12) | (0<<CS12) | (1<<CS11) | (0<<CS10);
     2a4:	8a e0       	ldi	r24, 0x0A	; 10
     2a6:	80 93 81 00 	sts	0x0081, r24
	OCR1A = 25000;
     2aa:	88 ea       	ldi	r24, 0xA8	; 168
     2ac:	91 e6       	ldi	r25, 0x61	; 97
     2ae:	90 93 89 00 	sts	0x0089, r25
     2b2:	80 93 88 00 	sts	0x0088, r24
	TIMSK1 = 0x02;// (0x0<<7) | (0x0<<6) | (0<<ICIE1) | (0x0<<4) | (0x0<<3) | (0<<OCIE1B) | (1<<OCIE1A) | (0<<TOIE1);
     2b6:	20 93 6f 00 	sts	0x006F, r18
	//////////////////////////////////////////////////////////////////////////
	// SET PIN CHANGE INTERRUPT CONFIGURATION
	// PCIE3 for PD2 and PD3 encoder B and A positions on board
	//DDRC |= 0x12;
	//PIND |= 0x12;
	PCMSK3	= 0x0F; //(0<<PCINT31) | (0<<PCINT30) | (0<<PCINT29) | (0<<PCINT28) | (1<<PCINT27) | (1<<PCINT26) | (0<<PCINT25) | (0<<PCINT24);//0x0C;
     2ba:	8f e0       	ldi	r24, 0x0F	; 15
     2bc:	80 93 73 00 	sts	0x0073, r24
	PCICR	= 0xFF;
     2c0:	8f ef       	ldi	r24, 0xFF	; 255
     2c2:	80 93 68 00 	sts	0x0068, r24
	PCIFR   = 0xFF;
     2c6:	8b bb       	out	0x1b, r24	; 27
     2c8:	08 95       	ret

000002ca <set_motor_speed>:
}

void set_motor_speed(int speed){
	if (speed < 0) { MOTOR_REV;	}
     2ca:	97 ff       	sbrs	r25, 7
     2cc:	02 c0       	rjmp	.+4      	; 0x2d2 <set_motor_speed+0x8>
     2ce:	47 98       	cbi	0x08, 7	; 8
     2d0:	01 c0       	rjmp	.+2      	; 0x2d4 <set_motor_speed+0xa>
	else { MOTOR_FWD; }
     2d2:	47 9a       	sbi	0x08, 7	; 8
	
	motor1_speed = abs(speed);
     2d4:	97 ff       	sbrs	r25, 7
     2d6:	03 c0       	rjmp	.+6      	; 0x2de <set_motor_speed+0x14>
     2d8:	91 95       	neg	r25
     2da:	81 95       	neg	r24
     2dc:	91 09       	sbc	r25, r1
     2de:	90 93 ce 03 	sts	0x03CE, r25
     2e2:	80 93 cd 03 	sts	0x03CD, r24

	if (motor1_speed >= 255)    { OCR2A = MOTOR_MAX; }
     2e6:	80 91 cd 03 	lds	r24, 0x03CD
     2ea:	90 91 ce 03 	lds	r25, 0x03CE
     2ee:	8f 3f       	cpi	r24, 0xFF	; 255
     2f0:	91 05       	cpc	r25, r1
     2f2:	14 f0       	brlt	.+4      	; 0x2f8 <set_motor_speed+0x2e>
     2f4:	8f ef       	ldi	r24, 0xFF	; 255
     2f6:	04 c0       	rjmp	.+8      	; 0x300 <set_motor_speed+0x36>
	else						{ OCR2A = motor1_speed; }
     2f8:	80 91 cd 03 	lds	r24, 0x03CD
     2fc:	90 91 ce 03 	lds	r25, 0x03CE
     300:	80 93 b3 00 	sts	0x00B3, r24
     304:	08 95       	ret

00000306 <__vector_7>:
}

ISR(PCINT3_vect)
{
     306:	1f 92       	push	r1
     308:	0f 92       	push	r0
     30a:	0f b6       	in	r0, 0x3f	; 63
     30c:	0f 92       	push	r0
     30e:	11 24       	eor	r1, r1
     310:	2f 93       	push	r18
     312:	3f 93       	push	r19
     314:	4f 93       	push	r20
     316:	5f 93       	push	r21
     318:	8f 93       	push	r24
     31a:	9f 93       	push	r25
     31c:	af 93       	push	r26
     31e:	bf 93       	push	r27
	// Is Encoder HIGH
	unsigned char m1a_val = ((PIND & (1<<PIND3)) > 0);
     320:	31 e0       	ldi	r19, 0x01	; 1
     322:	4b 9b       	sbis	0x09, 3	; 9
     324:	30 e0       	ldi	r19, 0x00	; 0
	unsigned char m1b_val = ((PIND & (1<<PIND2)) > 0);
     326:	21 e0       	ldi	r18, 0x01	; 1
     328:	4a 9b       	sbis	0x09, 2	; 9
     32a:	20 e0       	ldi	r18, 0x00	; 0
	
	// Truth Table for Direction
	char plus_m1 = m1a_val ^ global_last_m1b_val;
     32c:	40 91 fb 03 	lds	r20, 0x03FB
	char minus_m1 = m1b_val ^ global_last_m1a_val;
     330:	50 91 fc 03 	lds	r21, 0x03FC

	// Increment appropriate counts
	if(plus_m1)
     334:	34 17       	cp	r19, r20
     336:	99 f0       	breq	.+38     	; 0x35e <__vector_7+0x58>
	{
		global_counts_m1 += 1;
     338:	80 91 02 04 	lds	r24, 0x0402
     33c:	90 91 03 04 	lds	r25, 0x0403
     340:	a0 91 04 04 	lds	r26, 0x0404
     344:	b0 91 05 04 	lds	r27, 0x0405
     348:	01 96       	adiw	r24, 0x01	; 1
     34a:	a1 1d       	adc	r26, r1
     34c:	b1 1d       	adc	r27, r1
     34e:	80 93 02 04 	sts	0x0402, r24
     352:	90 93 03 04 	sts	0x0403, r25
     356:	a0 93 04 04 	sts	0x0404, r26
     35a:	b0 93 05 04 	sts	0x0405, r27
	}
	if(minus_m1)
     35e:	25 17       	cp	r18, r21
     360:	99 f0       	breq	.+38     	; 0x388 <__vector_7+0x82>
	{
		global_counts_m1 -= 1;
     362:	80 91 02 04 	lds	r24, 0x0402
     366:	90 91 03 04 	lds	r25, 0x0403
     36a:	a0 91 04 04 	lds	r26, 0x0404
     36e:	b0 91 05 04 	lds	r27, 0x0405
     372:	01 97       	sbiw	r24, 0x01	; 1
     374:	a1 09       	sbc	r26, r1
     376:	b1 09       	sbc	r27, r1
     378:	80 93 02 04 	sts	0x0402, r24
     37c:	90 93 03 04 	sts	0x0403, r25
     380:	a0 93 04 04 	sts	0x0404, r26
     384:	b0 93 05 04 	sts	0x0405, r27
	}

	// Set error to 1, if both m1 values do not equal the their last respective value
	if(m1a_val != global_last_m1a_val && m1b_val != global_last_m1b_val)
     388:	35 17       	cp	r19, r21
     38a:	29 f0       	breq	.+10     	; 0x396 <__vector_7+0x90>
     38c:	24 17       	cp	r18, r20
     38e:	19 f0       	breq	.+6      	; 0x396 <__vector_7+0x90>
	{
		global_error_m1 = 1;
     390:	81 e0       	ldi	r24, 0x01	; 1
     392:	80 93 fd 03 	sts	0x03FD, r24
	}
	
	// Set Last variable for next iteration
	global_last_m1a_val = m1a_val;
     396:	30 93 fc 03 	sts	0x03FC, r19
	global_last_m1b_val = m1b_val;
     39a:	20 93 fb 03 	sts	0x03FB, r18
}
     39e:	bf 91       	pop	r27
     3a0:	af 91       	pop	r26
     3a2:	9f 91       	pop	r25
     3a4:	8f 91       	pop	r24
     3a6:	5f 91       	pop	r21
     3a8:	4f 91       	pop	r20
     3aa:	3f 91       	pop	r19
     3ac:	2f 91       	pop	r18
     3ae:	0f 90       	pop	r0
     3b0:	0f be       	out	0x3f, r0	; 63
     3b2:	0f 90       	pop	r0
     3b4:	1f 90       	pop	r1
     3b6:	18 95       	reti

000003b8 <__vector_13>:

/***********************************************************
PID CONTROLLER
************************************************************/
ISR(TIMER1_COMPA_vect) {
     3b8:	1f 92       	push	r1
     3ba:	0f 92       	push	r0
     3bc:	0f b6       	in	r0, 0x3f	; 63
     3be:	0f 92       	push	r0
     3c0:	11 24       	eor	r1, r1
     3c2:	0b b6       	in	r0, 0x3b	; 59
     3c4:	0f 92       	push	r0
     3c6:	4f 92       	push	r4
     3c8:	5f 92       	push	r5
     3ca:	6f 92       	push	r6
     3cc:	7f 92       	push	r7
     3ce:	8f 92       	push	r8
     3d0:	9f 92       	push	r9
     3d2:	af 92       	push	r10
     3d4:	bf 92       	push	r11
     3d6:	cf 92       	push	r12
     3d8:	df 92       	push	r13
     3da:	ef 92       	push	r14
     3dc:	ff 92       	push	r15
     3de:	2f 93       	push	r18
     3e0:	3f 93       	push	r19
     3e2:	4f 93       	push	r20
     3e4:	5f 93       	push	r21
     3e6:	6f 93       	push	r22
     3e8:	7f 93       	push	r23
     3ea:	8f 93       	push	r24
     3ec:	9f 93       	push	r25
     3ee:	af 93       	push	r26
     3f0:	bf 93       	push	r27
     3f2:	ef 93       	push	r30
     3f4:	ff 93       	push	r31
     3f6:	cf 93       	push	r28
     3f8:	df 93       	push	r29
     3fa:	cd b7       	in	r28, 0x3d	; 61
     3fc:	de b7       	in	r29, 0x3e	; 62
     3fe:	68 97       	sbiw	r28, 0x18	; 24
     400:	de bf       	out	0x3e, r29	; 62
     402:	cd bf       	out	0x3d, r28	; 61
	float dt = 0.0;
	long trgt = 500;
	
	dt = (double)(TIMER1_PERIOD/1000.0);
	
	if (velocity)
     404:	80 91 cf 03 	lds	r24, 0x03CF
     408:	88 23       	and	r24, r24
     40a:	09 f4       	brne	.+2      	; 0x40e <__vector_13+0x56>
     40c:	85 c1       	rjmp	.+778    	; 0x718 <__vector_13+0x360>
	{
		timer1_cnt++;
     40e:	80 91 ef 03 	lds	r24, 0x03EF
     412:	90 91 f0 03 	lds	r25, 0x03F0
     416:	a0 91 f1 03 	lds	r26, 0x03F1
     41a:	b0 91 f2 03 	lds	r27, 0x03F2
     41e:	01 96       	adiw	r24, 0x01	; 1
     420:	a1 1d       	adc	r26, r1
     422:	b1 1d       	adc	r27, r1
     424:	80 93 ef 03 	sts	0x03EF, r24
     428:	90 93 f0 03 	sts	0x03F0, r25
     42c:	a0 93 f1 03 	sts	0x03F1, r26
     430:	b0 93 f2 03 	sts	0x03F2, r27
		dbgLCD = true;
     434:	81 e0       	ldi	r24, 0x01	; 1
     436:	80 93 f3 03 	sts	0x03F3, r24
		
		if (timer1_cnt % 4 == 0) // frequency adjust
     43a:	80 91 ef 03 	lds	r24, 0x03EF
     43e:	90 91 f0 03 	lds	r25, 0x03F0
     442:	a0 91 f1 03 	lds	r26, 0x03F1
     446:	b0 91 f2 03 	lds	r27, 0x03F2
     44a:	83 70       	andi	r24, 0x03	; 3
     44c:	99 27       	eor	r25, r25
     44e:	aa 27       	eor	r26, r26
     450:	bb 27       	eor	r27, r27
     452:	89 2b       	or	r24, r25
     454:	8a 2b       	or	r24, r26
     456:	8b 2b       	or	r24, r27
     458:	09 f0       	breq	.+2      	; 0x45c <__vector_13+0xa4>
     45a:	4f c1       	rjmp	.+670    	; 0x6fa <__vector_13+0x342>
		{
			
			Vm = (global_counts_m1 - last_global_counts_m1);
     45c:	c0 90 02 04 	lds	r12, 0x0402
     460:	d0 90 03 04 	lds	r13, 0x0403
     464:	e0 90 04 04 	lds	r14, 0x0404
     468:	f0 90 05 04 	lds	r15, 0x0405
     46c:	80 91 fe 03 	lds	r24, 0x03FE
     470:	90 91 ff 03 	lds	r25, 0x03FF
     474:	a0 91 00 04 	lds	r26, 0x0400
     478:	b0 91 01 04 	lds	r27, 0x0401
     47c:	46 01       	movw	r8, r12
     47e:	57 01       	movw	r10, r14
     480:	88 1a       	sub	r8, r24
     482:	99 0a       	sbc	r9, r25
     484:	aa 0a       	sbc	r10, r26
     486:	bb 0a       	sbc	r11, r27
     488:	c5 01       	movw	r24, r10
     48a:	b4 01       	movw	r22, r8
     48c:	0e 94 3a 13 	call	0x2674	; 0x2674 <__floatsisf>
     490:	60 93 dd 03 	sts	0x03DD, r22
     494:	70 93 de 03 	sts	0x03DE, r23
     498:	80 93 df 03 	sts	0x03DF, r24
     49c:	90 93 e0 03 	sts	0x03E0, r25
			last_global_counts_m1 = global_counts_m1;
     4a0:	c0 92 fe 03 	sts	0x03FE, r12
     4a4:	d0 92 ff 03 	sts	0x03FF, r13
     4a8:	e0 92 00 04 	sts	0x0400, r14
     4ac:	f0 92 01 04 	sts	0x0401, r15
			error = Vr - Vm;
     4b0:	60 91 e1 03 	lds	r22, 0x03E1
     4b4:	70 91 e2 03 	lds	r23, 0x03E2
     4b8:	80 91 e3 03 	lds	r24, 0x03E3
     4bc:	90 91 e4 03 	lds	r25, 0x03E4
     4c0:	20 91 dd 03 	lds	r18, 0x03DD
     4c4:	30 91 de 03 	lds	r19, 0x03DE
     4c8:	40 91 df 03 	lds	r20, 0x03DF
     4cc:	50 91 e0 03 	lds	r21, 0x03E0
     4d0:	0e 94 36 12 	call	0x246c	; 0x246c <__subsf3>
     4d4:	60 93 c7 03 	sts	0x03C7, r22
     4d8:	70 93 c8 03 	sts	0x03C8, r23
     4dc:	80 93 c9 03 	sts	0x03C9, r24
     4e0:	90 93 ca 03 	sts	0x03CA, r25
			
			integral += (double)(error * dt);
     4e4:	60 91 c7 03 	lds	r22, 0x03C7
     4e8:	70 91 c8 03 	lds	r23, 0x03C8
     4ec:	80 91 c9 03 	lds	r24, 0x03C9
     4f0:	90 91 ca 03 	lds	r25, 0x03CA
     4f4:	2a e0       	ldi	r18, 0x0A	; 10
     4f6:	37 ed       	ldi	r19, 0xD7	; 215
     4f8:	43 e2       	ldi	r20, 0x23	; 35
     4fa:	5c e3       	ldi	r21, 0x3C	; 60
     4fc:	0e 94 ee 13 	call	0x27dc	; 0x27dc <__mulsf3>
     500:	20 91 b3 03 	lds	r18, 0x03B3
     504:	30 91 b4 03 	lds	r19, 0x03B4
     508:	40 91 b5 03 	lds	r20, 0x03B5
     50c:	50 91 b6 03 	lds	r21, 0x03B6
     510:	0e 94 37 12 	call	0x246e	; 0x246e <__addsf3>
     514:	6b 01       	movw	r12, r22
     516:	7c 01       	movw	r14, r24
			
			if (integral > 1000)
     518:	20 e0       	ldi	r18, 0x00	; 0
     51a:	30 e0       	ldi	r19, 0x00	; 0
     51c:	4a e7       	ldi	r20, 0x7A	; 122
     51e:	54 e4       	ldi	r21, 0x44	; 68
     520:	0e 94 ea 13 	call	0x27d4	; 0x27d4 <__gesf2>
     524:	18 16       	cp	r1, r24
     526:	2c f4       	brge	.+10     	; 0x532 <__vector_13+0x17a>
			{
				integral = 1000;
     528:	80 e0       	ldi	r24, 0x00	; 0
     52a:	90 e0       	ldi	r25, 0x00	; 0
     52c:	aa e7       	ldi	r26, 0x7A	; 122
     52e:	b4 e4       	ldi	r27, 0x44	; 68
     530:	17 c0       	rjmp	.+46     	; 0x560 <__vector_13+0x1a8>
			}
			else if (integral < -1000)
     532:	20 e0       	ldi	r18, 0x00	; 0
     534:	30 e0       	ldi	r19, 0x00	; 0
     536:	4a e7       	ldi	r20, 0x7A	; 122
     538:	54 ec       	ldi	r21, 0xC4	; 196
     53a:	c7 01       	movw	r24, r14
     53c:	b6 01       	movw	r22, r12
     53e:	0e 94 9b 12 	call	0x2536	; 0x2536 <__cmpsf2>
     542:	87 fd       	sbrc	r24, 7
     544:	09 c0       	rjmp	.+18     	; 0x558 <__vector_13+0x1a0>
			
			Vm = (global_counts_m1 - last_global_counts_m1);
			last_global_counts_m1 = global_counts_m1;
			error = Vr - Vm;
			
			integral += (double)(error * dt);
     546:	c0 92 b3 03 	sts	0x03B3, r12
     54a:	d0 92 b4 03 	sts	0x03B4, r13
     54e:	e0 92 b5 03 	sts	0x03B5, r14
     552:	f0 92 b6 03 	sts	0x03B6, r15
     556:	0c c0       	rjmp	.+24     	; 0x570 <__vector_13+0x1b8>
			{
				integral = 1000;
			}
			else if (integral < -1000)
			{
				integral = -1000;
     558:	80 e0       	ldi	r24, 0x00	; 0
     55a:	90 e0       	ldi	r25, 0x00	; 0
     55c:	aa e7       	ldi	r26, 0x7A	; 122
     55e:	b4 ec       	ldi	r27, 0xC4	; 196
     560:	80 93 b3 03 	sts	0x03B3, r24
     564:	90 93 b4 03 	sts	0x03B4, r25
     568:	a0 93 b5 03 	sts	0x03B5, r26
     56c:	b0 93 b6 03 	sts	0x03B6, r27
			}
			
			derivative = (double)(error - lasterror)/dt; // changed signs from +error-lasterror - due to not working out well.
     570:	80 90 c7 03 	lds	r8, 0x03C7
     574:	90 90 c8 03 	lds	r9, 0x03C8
     578:	a0 90 c9 03 	lds	r10, 0x03C9
     57c:	b0 90 ca 03 	lds	r11, 0x03CA
     580:	89 82       	std	Y+1, r8	; 0x01
     582:	9a 82       	std	Y+2, r9	; 0x02
     584:	ab 82       	std	Y+3, r10	; 0x03
     586:	bc 82       	std	Y+4, r11	; 0x04
     588:	80 90 b7 03 	lds	r8, 0x03B7
     58c:	90 90 b8 03 	lds	r9, 0x03B8
     590:	a0 90 b9 03 	lds	r10, 0x03B9
     594:	b0 90 ba 03 	lds	r11, 0x03BA
     598:	8d 82       	std	Y+5, r8	; 0x05
     59a:	9e 82       	std	Y+6, r9	; 0x06
     59c:	af 82       	std	Y+7, r10	; 0x07
     59e:	b8 86       	std	Y+8, r11	; 0x08
			lasterror = error;
     5a0:	80 91 c7 03 	lds	r24, 0x03C7
     5a4:	90 91 c8 03 	lds	r25, 0x03C8
     5a8:	a0 91 c9 03 	lds	r26, 0x03C9
     5ac:	b0 91 ca 03 	lds	r27, 0x03CA
     5b0:	80 93 b7 03 	sts	0x03B7, r24
     5b4:	90 93 b8 03 	sts	0x03B8, r25
     5b8:	a0 93 b9 03 	sts	0x03B9, r26
     5bc:	b0 93 ba 03 	sts	0x03BA, r27

			torq = (Kp*(Vr - Vm)) + (Ki * error) + (Kd * derivative);
     5c0:	80 90 d9 03 	lds	r8, 0x03D9
     5c4:	90 90 da 03 	lds	r9, 0x03DA
     5c8:	a0 90 db 03 	lds	r10, 0x03DB
     5cc:	b0 90 dc 03 	lds	r11, 0x03DC
     5d0:	40 90 e1 03 	lds	r4, 0x03E1
     5d4:	50 90 e2 03 	lds	r5, 0x03E2
     5d8:	60 90 e3 03 	lds	r6, 0x03E3
     5dc:	70 90 e4 03 	lds	r7, 0x03E4
     5e0:	20 91 dd 03 	lds	r18, 0x03DD
     5e4:	30 91 de 03 	lds	r19, 0x03DE
     5e8:	40 91 df 03 	lds	r20, 0x03DF
     5ec:	50 91 e0 03 	lds	r21, 0x03E0
     5f0:	80 91 d5 03 	lds	r24, 0x03D5
     5f4:	90 91 d6 03 	lds	r25, 0x03D6
     5f8:	a0 91 d7 03 	lds	r26, 0x03D7
     5fc:	b0 91 d8 03 	lds	r27, 0x03D8
     600:	89 87       	std	Y+9, r24	; 0x09
     602:	9a 87       	std	Y+10, r25	; 0x0a
     604:	ab 87       	std	Y+11, r26	; 0x0b
     606:	bc 87       	std	Y+12, r27	; 0x0c
     608:	80 91 c7 03 	lds	r24, 0x03C7
     60c:	90 91 c8 03 	lds	r25, 0x03C8
     610:	a0 91 c9 03 	lds	r26, 0x03C9
     614:	b0 91 ca 03 	lds	r27, 0x03CA
     618:	8d 87       	std	Y+13, r24	; 0x0d
     61a:	9e 87       	std	Y+14, r25	; 0x0e
     61c:	af 87       	std	Y+15, r26	; 0x0f
     61e:	b8 8b       	std	Y+16, r27	; 0x10
     620:	80 91 d1 03 	lds	r24, 0x03D1
     624:	90 91 d2 03 	lds	r25, 0x03D2
     628:	a0 91 d3 03 	lds	r26, 0x03D3
     62c:	b0 91 d4 03 	lds	r27, 0x03D4
     630:	89 8b       	std	Y+17, r24	; 0x11
     632:	9a 8b       	std	Y+18, r25	; 0x12
     634:	ab 8b       	std	Y+19, r26	; 0x13
     636:	bc 8b       	std	Y+20, r27	; 0x14
			
			newMotorSpeed += torq;
     638:	60 91 cb 03 	lds	r22, 0x03CB
     63c:	70 91 cc 03 	lds	r23, 0x03CC
     640:	88 27       	eor	r24, r24
     642:	77 fd       	sbrc	r23, 7
     644:	80 95       	com	r24
     646:	98 2f       	mov	r25, r24
     648:	2d 8b       	std	Y+21, r18	; 0x15
     64a:	3e 8b       	std	Y+22, r19	; 0x16
     64c:	4f 8b       	std	Y+23, r20	; 0x17
     64e:	58 8f       	std	Y+24, r21	; 0x18
     650:	0e 94 3a 13 	call	0x2674	; 0x2674 <__floatsisf>
     654:	6b 01       	movw	r12, r22
     656:	7c 01       	movw	r14, r24
			}
			
			derivative = (double)(error - lasterror)/dt; // changed signs from +error-lasterror - due to not working out well.
			lasterror = error;

			torq = (Kp*(Vr - Vm)) + (Ki * error) + (Kd * derivative);
     658:	2d 89       	ldd	r18, Y+21	; 0x15
     65a:	3e 89       	ldd	r19, Y+22	; 0x16
     65c:	4f 89       	ldd	r20, Y+23	; 0x17
     65e:	58 8d       	ldd	r21, Y+24	; 0x18
     660:	c3 01       	movw	r24, r6
     662:	b2 01       	movw	r22, r4
     664:	0e 94 36 12 	call	0x246c	; 0x246c <__subsf3>
     668:	9b 01       	movw	r18, r22
     66a:	ac 01       	movw	r20, r24
     66c:	c5 01       	movw	r24, r10
     66e:	b4 01       	movw	r22, r8
     670:	0e 94 ee 13 	call	0x27dc	; 0x27dc <__mulsf3>
     674:	4b 01       	movw	r8, r22
     676:	5c 01       	movw	r10, r24
     678:	2d 85       	ldd	r18, Y+13	; 0x0d
     67a:	3e 85       	ldd	r19, Y+14	; 0x0e
     67c:	4f 85       	ldd	r20, Y+15	; 0x0f
     67e:	58 89       	ldd	r21, Y+16	; 0x10
     680:	69 85       	ldd	r22, Y+9	; 0x09
     682:	7a 85       	ldd	r23, Y+10	; 0x0a
     684:	8b 85       	ldd	r24, Y+11	; 0x0b
     686:	9c 85       	ldd	r25, Y+12	; 0x0c
     688:	0e 94 ee 13 	call	0x27dc	; 0x27dc <__mulsf3>
     68c:	9b 01       	movw	r18, r22
     68e:	ac 01       	movw	r20, r24
     690:	c5 01       	movw	r24, r10
     692:	b4 01       	movw	r22, r8
     694:	0e 94 37 12 	call	0x246e	; 0x246e <__addsf3>
     698:	4b 01       	movw	r8, r22
     69a:	5c 01       	movw	r10, r24
			else if (integral < -1000)
			{
				integral = -1000;
			}
			
			derivative = (double)(error - lasterror)/dt; // changed signs from +error-lasterror - due to not working out well.
     69c:	2d 81       	ldd	r18, Y+5	; 0x05
     69e:	3e 81       	ldd	r19, Y+6	; 0x06
     6a0:	4f 81       	ldd	r20, Y+7	; 0x07
     6a2:	58 85       	ldd	r21, Y+8	; 0x08
     6a4:	69 81       	ldd	r22, Y+1	; 0x01
     6a6:	7a 81       	ldd	r23, Y+2	; 0x02
     6a8:	8b 81       	ldd	r24, Y+3	; 0x03
     6aa:	9c 81       	ldd	r25, Y+4	; 0x04
     6ac:	0e 94 36 12 	call	0x246c	; 0x246c <__subsf3>
     6b0:	2a e0       	ldi	r18, 0x0A	; 10
     6b2:	37 ed       	ldi	r19, 0xD7	; 215
     6b4:	43 e2       	ldi	r20, 0x23	; 35
     6b6:	5c e3       	ldi	r21, 0x3C	; 60
     6b8:	0e 94 9f 12 	call	0x253e	; 0x253e <__divsf3>
     6bc:	9b 01       	movw	r18, r22
     6be:	ac 01       	movw	r20, r24
			lasterror = error;

			torq = (Kp*(Vr - Vm)) + (Ki * error) + (Kd * derivative);
     6c0:	69 89       	ldd	r22, Y+17	; 0x11
     6c2:	7a 89       	ldd	r23, Y+18	; 0x12
     6c4:	8b 89       	ldd	r24, Y+19	; 0x13
     6c6:	9c 89       	ldd	r25, Y+20	; 0x14
     6c8:	0e 94 ee 13 	call	0x27dc	; 0x27dc <__mulsf3>
     6cc:	9b 01       	movw	r18, r22
     6ce:	ac 01       	movw	r20, r24
     6d0:	c5 01       	movw	r24, r10
     6d2:	b4 01       	movw	r22, r8
     6d4:	0e 94 37 12 	call	0x246e	; 0x246e <__addsf3>
     6d8:	9b 01       	movw	r18, r22
     6da:	ac 01       	movw	r20, r24
			
			newMotorSpeed += torq;
     6dc:	c7 01       	movw	r24, r14
     6de:	b6 01       	movw	r22, r12
     6e0:	0e 94 37 12 	call	0x246e	; 0x246e <__addsf3>
     6e4:	0e 94 07 13 	call	0x260e	; 0x260e <__fixsfsi>
     6e8:	70 93 cc 03 	sts	0x03CC, r23
     6ec:	60 93 cb 03 	sts	0x03CB, r22
			set_motor_speed(newMotorSpeed);
     6f0:	80 91 cb 03 	lds	r24, 0x03CB
     6f4:	90 91 cc 03 	lds	r25, 0x03CC
     6f8:	e8 dd       	rcall	.-1072   	; 0x2ca <set_motor_speed>
     6fa:	80 91 ef 03 	lds	r24, 0x03EF
		} // end frequency adjust
		
		if (timer1_cnt > trgt)
     6fe:	90 91 f0 03 	lds	r25, 0x03F0
     702:	a0 91 f1 03 	lds	r26, 0x03F1
     706:	b0 91 f2 03 	lds	r27, 0x03F2
     70a:	85 3f       	cpi	r24, 0xF5	; 245
     70c:	91 40       	sbci	r25, 0x01	; 1
     70e:	a1 05       	cpc	r26, r1
     710:	b1 05       	cpc	r27, r1
     712:	0c f4       	brge	.+2      	; 0x716 <__vector_13+0x35e>
     714:	2b c1       	rjmp	.+598    	; 0x96c <__vector_13+0x5b4>
     716:	20 c1       	rjmp	.+576    	; 0x958 <__vector_13+0x5a0>
     718:	80 91 ef 03 	lds	r24, 0x03EF
	}
	else //positional
	{
		//if(!execTragectory)
		//{
			timer1_cnt++;
     71c:	90 91 f0 03 	lds	r25, 0x03F0
     720:	a0 91 f1 03 	lds	r26, 0x03F1
     724:	b0 91 f2 03 	lds	r27, 0x03F2
     728:	01 96       	adiw	r24, 0x01	; 1
     72a:	a1 1d       	adc	r26, r1
     72c:	b1 1d       	adc	r27, r1
     72e:	80 93 ef 03 	sts	0x03EF, r24
     732:	90 93 f0 03 	sts	0x03F0, r25
     736:	a0 93 f1 03 	sts	0x03F1, r26
     73a:	b0 93 f2 03 	sts	0x03F2, r27
     73e:	81 e0       	ldi	r24, 0x01	; 1
		//}
		dbgLCD = true;
     740:	80 93 f3 03 	sts	0x03F3, r24
     744:	60 91 02 04 	lds	r22, 0x0402
		
		Pm = global_counts_m1;
     748:	70 91 03 04 	lds	r23, 0x0403
     74c:	80 91 04 04 	lds	r24, 0x0404
     750:	90 91 05 04 	lds	r25, 0x0405
     754:	0e 94 3a 13 	call	0x2674	; 0x2674 <__floatsisf>
     758:	60 93 e5 03 	sts	0x03E5, r22
     75c:	70 93 e6 03 	sts	0x03E6, r23
     760:	80 93 e7 03 	sts	0x03E7, r24
     764:	90 93 e8 03 	sts	0x03E8, r25
     768:	60 91 e9 03 	lds	r22, 0x03E9
		error = Pr - Pm;
     76c:	70 91 ea 03 	lds	r23, 0x03EA
     770:	80 91 eb 03 	lds	r24, 0x03EB
     774:	90 91 ec 03 	lds	r25, 0x03EC
     778:	20 91 e5 03 	lds	r18, 0x03E5
     77c:	30 91 e6 03 	lds	r19, 0x03E6
     780:	40 91 e7 03 	lds	r20, 0x03E7
     784:	50 91 e8 03 	lds	r21, 0x03E8
     788:	0e 94 36 12 	call	0x246c	; 0x246c <__subsf3>
     78c:	60 93 c7 03 	sts	0x03C7, r22
     790:	70 93 c8 03 	sts	0x03C8, r23
     794:	80 93 c9 03 	sts	0x03C9, r24
     798:	90 93 ca 03 	sts	0x03CA, r25
     79c:	60 91 c7 03 	lds	r22, 0x03C7
		integral += error * dt;
     7a0:	70 91 c8 03 	lds	r23, 0x03C8
     7a4:	80 91 c9 03 	lds	r24, 0x03C9
     7a8:	90 91 ca 03 	lds	r25, 0x03CA
     7ac:	2a e0       	ldi	r18, 0x0A	; 10
     7ae:	37 ed       	ldi	r19, 0xD7	; 215
     7b0:	43 e2       	ldi	r20, 0x23	; 35
     7b2:	5c e3       	ldi	r21, 0x3C	; 60
     7b4:	0e 94 ee 13 	call	0x27dc	; 0x27dc <__mulsf3>
     7b8:	20 91 b3 03 	lds	r18, 0x03B3
     7bc:	30 91 b4 03 	lds	r19, 0x03B4
     7c0:	40 91 b5 03 	lds	r20, 0x03B5
     7c4:	50 91 b6 03 	lds	r21, 0x03B6
     7c8:	0e 94 37 12 	call	0x246e	; 0x246e <__addsf3>
     7cc:	6b 01       	movw	r12, r22
     7ce:	7c 01       	movw	r14, r24
     7d0:	60 93 b3 03 	sts	0x03B3, r22
     7d4:	70 93 b4 03 	sts	0x03B4, r23
     7d8:	80 93 b5 03 	sts	0x03B5, r24
     7dc:	90 93 b6 03 	sts	0x03B6, r25
     7e0:	80 90 c7 03 	lds	r8, 0x03C7
		derivative = (error - lasterror) / dt;
     7e4:	90 90 c8 03 	lds	r9, 0x03C8
     7e8:	a0 90 c9 03 	lds	r10, 0x03C9
     7ec:	b0 90 ca 03 	lds	r11, 0x03CA
     7f0:	89 82       	std	Y+1, r8	; 0x01
     7f2:	9a 82       	std	Y+2, r9	; 0x02
     7f4:	ab 82       	std	Y+3, r10	; 0x03
     7f6:	bc 82       	std	Y+4, r11	; 0x04
     7f8:	80 90 b7 03 	lds	r8, 0x03B7
     7fc:	90 90 b8 03 	lds	r9, 0x03B8
     800:	a0 90 b9 03 	lds	r10, 0x03B9
     804:	b0 90 ba 03 	lds	r11, 0x03BA
     808:	8d 82       	std	Y+5, r8	; 0x05
     80a:	9e 82       	std	Y+6, r9	; 0x06
     80c:	af 82       	std	Y+7, r10	; 0x07
     80e:	b8 86       	std	Y+8, r11	; 0x08
     810:	60 91 d9 03 	lds	r22, 0x03D9
		torq = (Kp*error) + (Ki*integral) + (Kd*derivative);
     814:	70 91 da 03 	lds	r23, 0x03DA
     818:	80 91 db 03 	lds	r24, 0x03DB
     81c:	90 91 dc 03 	lds	r25, 0x03DC
     820:	20 91 c7 03 	lds	r18, 0x03C7
     824:	30 91 c8 03 	lds	r19, 0x03C8
     828:	40 91 c9 03 	lds	r20, 0x03C9
     82c:	50 91 ca 03 	lds	r21, 0x03CA
     830:	40 90 d5 03 	lds	r4, 0x03D5
     834:	50 90 d6 03 	lds	r5, 0x03D6
     838:	60 90 d7 03 	lds	r6, 0x03D7
     83c:	70 90 d8 03 	lds	r7, 0x03D8
     840:	80 90 d1 03 	lds	r8, 0x03D1
     844:	90 90 d2 03 	lds	r9, 0x03D2
     848:	a0 90 d3 03 	lds	r10, 0x03D3
     84c:	b0 90 d4 03 	lds	r11, 0x03D4
     850:	89 86       	std	Y+9, r8	; 0x09
     852:	9a 86       	std	Y+10, r9	; 0x0a
     854:	ab 86       	std	Y+11, r10	; 0x0b
     856:	bc 86       	std	Y+12, r11	; 0x0c
     858:	0e 94 ee 13 	call	0x27dc	; 0x27dc <__mulsf3>
     85c:	4b 01       	movw	r8, r22
     85e:	5c 01       	movw	r10, r24
     860:	a7 01       	movw	r20, r14
     862:	96 01       	movw	r18, r12
     864:	c3 01       	movw	r24, r6
     866:	b2 01       	movw	r22, r4
     868:	0e 94 ee 13 	call	0x27dc	; 0x27dc <__mulsf3>
     86c:	9b 01       	movw	r18, r22
     86e:	ac 01       	movw	r20, r24
     870:	c5 01       	movw	r24, r10
     872:	b4 01       	movw	r22, r8
     874:	0e 94 37 12 	call	0x246e	; 0x246e <__addsf3>
     878:	6b 01       	movw	r12, r22
     87a:	7c 01       	movw	r14, r24
     87c:	2d 81       	ldd	r18, Y+5	; 0x05
		dbgLCD = true;
		
		Pm = global_counts_m1;
		error = Pr - Pm;
		integral += error * dt;
		derivative = (error - lasterror) / dt;
     87e:	3e 81       	ldd	r19, Y+6	; 0x06
     880:	4f 81       	ldd	r20, Y+7	; 0x07
     882:	58 85       	ldd	r21, Y+8	; 0x08
     884:	69 81       	ldd	r22, Y+1	; 0x01
     886:	7a 81       	ldd	r23, Y+2	; 0x02
     888:	8b 81       	ldd	r24, Y+3	; 0x03
     88a:	9c 81       	ldd	r25, Y+4	; 0x04
     88c:	0e 94 36 12 	call	0x246c	; 0x246c <__subsf3>
     890:	2a e0       	ldi	r18, 0x0A	; 10
     892:	37 ed       	ldi	r19, 0xD7	; 215
     894:	43 e2       	ldi	r20, 0x23	; 35
     896:	5c e3       	ldi	r21, 0x3C	; 60
     898:	0e 94 9f 12 	call	0x253e	; 0x253e <__divsf3>
     89c:	9b 01       	movw	r18, r22
     89e:	ac 01       	movw	r20, r24
     8a0:	69 85       	ldd	r22, Y+9	; 0x09
		torq = (Kp*error) + (Ki*integral) + (Kd*derivative);
     8a2:	7a 85       	ldd	r23, Y+10	; 0x0a
     8a4:	8b 85       	ldd	r24, Y+11	; 0x0b
     8a6:	9c 85       	ldd	r25, Y+12	; 0x0c
     8a8:	0e 94 ee 13 	call	0x27dc	; 0x27dc <__mulsf3>
     8ac:	9b 01       	movw	r18, r22
     8ae:	ac 01       	movw	r20, r24
     8b0:	c7 01       	movw	r24, r14
     8b2:	b6 01       	movw	r22, r12
     8b4:	0e 94 37 12 	call	0x246e	; 0x246e <__addsf3>
     8b8:	0e 94 07 13 	call	0x260e	; 0x260e <__fixsfsi>
		newMotorSpeed = (int)torq;
     8bc:	70 93 cc 03 	sts	0x03CC, r23
     8c0:	60 93 cb 03 	sts	0x03CB, r22
     8c4:	80 91 cb 03 	lds	r24, 0x03CB
		set_motor_speed(newMotorSpeed);
     8c8:	90 91 cc 03 	lds	r25, 0x03CC
     8cc:	fe dc       	rcall	.-1540   	; 0x2ca <set_motor_speed>
     8ce:	80 91 c7 03 	lds	r24, 0x03C7
		lasterror = error;
     8d2:	90 91 c8 03 	lds	r25, 0x03C8
     8d6:	a0 91 c9 03 	lds	r26, 0x03C9
     8da:	b0 91 ca 03 	lds	r27, 0x03CA
     8de:	80 93 b7 03 	sts	0x03B7, r24
     8e2:	90 93 b8 03 	sts	0x03B8, r25
     8e6:	a0 93 b9 03 	sts	0x03B9, r26
     8ea:	b0 93 ba 03 	sts	0x03BA, r27
     8ee:	80 91 d0 03 	lds	r24, 0x03D0
		
		if (execTragectory)
     8f2:	88 23       	and	r24, r24
     8f4:	21 f1       	breq	.+72     	; 0x93e <__vector_13+0x586>
     8f6:	60 91 ef 03 	lds	r22, 0x03EF
			//if (((int)Pm - 10 <= (int)Pr)
			 //&& ((int)Pm + 10 >= (int)Pr))
			//{
				//timer1_cnt++;
				//if (timer1_cnt % 100 == 0)
				if(timer1_cnt % 100 == 0)
     8fa:	70 91 f0 03 	lds	r23, 0x03F0
     8fe:	80 91 f1 03 	lds	r24, 0x03F1
     902:	90 91 f2 03 	lds	r25, 0x03F2
     906:	24 e6       	ldi	r18, 0x64	; 100
     908:	30 e0       	ldi	r19, 0x00	; 0
     90a:	40 e0       	ldi	r20, 0x00	; 0
     90c:	50 e0       	ldi	r21, 0x00	; 0
     90e:	0e 94 94 1c 	call	0x3928	; 0x3928 <__divmodsi4>
     912:	67 2b       	or	r22, r23
     914:	68 2b       	or	r22, r24
     916:	69 2b       	or	r22, r25
     918:	49 f5       	brne	.+82     	; 0x96c <__vector_13+0x5b4>
     91a:	10 92 ef 03 	sts	0x03EF, r1
				{
					timer1_cnt = 0;
     91e:	10 92 f0 03 	sts	0x03F0, r1
     922:	10 92 f1 03 	sts	0x03F1, r1
     926:	10 92 f2 03 	sts	0x03F2, r1
     92a:	80 91 26 01 	lds	r24, 0x0126
					step++;
     92e:	90 91 27 01 	lds	r25, 0x0127
     932:	01 96       	adiw	r24, 0x01	; 1
     934:	90 93 27 01 	sts	0x0127, r25
     938:	80 93 26 01 	sts	0x0126, r24
     93c:	17 c0       	rjmp	.+46     	; 0x96c <__vector_13+0x5b4>
     93e:	80 91 ef 03 	lds	r24, 0x03EF
				//}
			//}
		}
		else
		{
			if (timer1_cnt > trgt)
     942:	90 91 f0 03 	lds	r25, 0x03F0
     946:	a0 91 f1 03 	lds	r26, 0x03F1
     94a:	b0 91 f2 03 	lds	r27, 0x03F2
     94e:	85 3f       	cpi	r24, 0xF5	; 245
     950:	91 40       	sbci	r25, 0x01	; 1
     952:	a1 05       	cpc	r26, r1
     954:	b1 05       	cpc	r27, r1
     956:	54 f0       	brlt	.+20     	; 0x96c <__vector_13+0x5b4>
     958:	10 92 f8 03 	sts	0x03F8, r1
			{
				loggerUSB = false;
     95c:	10 92 ef 03 	sts	0x03EF, r1
				timer1_cnt = 0;
     960:	10 92 f0 03 	sts	0x03F0, r1
     964:	10 92 f1 03 	sts	0x03F1, r1
     968:	10 92 f2 03 	sts	0x03F2, r1
     96c:	68 96       	adiw	r28, 0x18	; 24
     96e:	0f b6       	in	r0, 0x3f	; 63
			}
		}
	}
}
     970:	f8 94       	cli
     972:	de bf       	out	0x3e, r29	; 62
     974:	0f be       	out	0x3f, r0	; 63
     976:	cd bf       	out	0x3d, r28	; 61
     978:	df 91       	pop	r29
     97a:	cf 91       	pop	r28
     97c:	ff 91       	pop	r31
     97e:	ef 91       	pop	r30
     980:	bf 91       	pop	r27
     982:	af 91       	pop	r26
     984:	9f 91       	pop	r25
     986:	8f 91       	pop	r24
     988:	7f 91       	pop	r23
     98a:	6f 91       	pop	r22
     98c:	5f 91       	pop	r21
     98e:	4f 91       	pop	r20
     990:	3f 91       	pop	r19
     992:	2f 91       	pop	r18
     994:	ff 90       	pop	r15
     996:	ef 90       	pop	r14
     998:	df 90       	pop	r13
     99a:	cf 90       	pop	r12
     99c:	bf 90       	pop	r11
     99e:	af 90       	pop	r10
     9a0:	9f 90       	pop	r9
     9a2:	8f 90       	pop	r8
     9a4:	7f 90       	pop	r7
     9a6:	6f 90       	pop	r6
     9a8:	5f 90       	pop	r5
     9aa:	4f 90       	pop	r4
     9ac:	0f 90       	pop	r0
     9ae:	0b be       	out	0x3b, r0	; 59
     9b0:	0f 90       	pop	r0
     9b2:	0f be       	out	0x3f, r0	; 63
     9b4:	0f 90       	pop	r0
     9b6:	1f 90       	pop	r1
     9b8:	18 95       	reti

000009ba <prnt_mtr_vals>:
     9ba:	80 91 cf 03 	lds	r24, 0x03CF
}

void prnt_mtr_vals(){
	if(velocity)
	{
		lcd_goto_xy(0,0);
     9be:	60 e0       	ldi	r22, 0x00	; 0
	lcd_goto_xy(0,1);
	printf("ecnt:%ld", global_counts_m1);
}

void prnt_mtr_vals(){
	if(velocity)
     9c0:	88 23       	and	r24, r24
     9c2:	91 f1       	breq	.+100    	; 0xa28 <prnt_mtr_vals+0x6e>
	{
		lcd_goto_xy(0,0);
     9c4:	80 e0       	ldi	r24, 0x00	; 0
     9c6:	f7 d6       	rcall	.+3566   	; 0x17b6 <lcd_goto_xy>
     9c8:	80 91 dd 03 	lds	r24, 0x03DD
		printf("M:% .3f", Vm);
     9cc:	90 91 de 03 	lds	r25, 0x03DE
     9d0:	a0 91 df 03 	lds	r26, 0x03DF
     9d4:	b0 91 e0 03 	lds	r27, 0x03E0
     9d8:	bf 93       	push	r27
     9da:	af 93       	push	r26
     9dc:	9f 93       	push	r25
     9de:	8f 93       	push	r24
     9e0:	8a e3       	ldi	r24, 0x3A	; 58
     9e2:	91 e0       	ldi	r25, 0x01	; 1
     9e4:	9f 93       	push	r25
     9e6:	8f 93       	push	r24
     9e8:	0e 94 f7 1f 	call	0x3fee	; 0x3fee <printf>
     9ec:	61 e0       	ldi	r22, 0x01	; 1
		lcd_goto_xy(0,1);
     9ee:	80 e0       	ldi	r24, 0x00	; 0
     9f0:	e2 d6       	rcall	.+3524   	; 0x17b6 <lcd_goto_xy>
     9f2:	80 91 e1 03 	lds	r24, 0x03E1
		printf("t:% 3f", Vr);
     9f6:	90 91 e2 03 	lds	r25, 0x03E2
     9fa:	a0 91 e3 03 	lds	r26, 0x03E3
     9fe:	b0 91 e4 03 	lds	r27, 0x03E4
     a02:	bf 93       	push	r27
     a04:	af 93       	push	r26
     a06:	9f 93       	push	r25
     a08:	8f 93       	push	r24
     a0a:	82 e4       	ldi	r24, 0x42	; 66
     a0c:	91 e0       	ldi	r25, 0x01	; 1
     a0e:	9f 93       	push	r25
     a10:	8f 93       	push	r24
     a12:	0e 94 f7 1f 	call	0x3fee	; 0x3fee <printf>
     a16:	8d b7       	in	r24, 0x3d	; 61
     a18:	9e b7       	in	r25, 0x3e	; 62
     a1a:	0c 96       	adiw	r24, 0x0c	; 12
     a1c:	0f b6       	in	r0, 0x3f	; 63
     a1e:	f8 94       	cli
     a20:	9e bf       	out	0x3e, r25	; 62
     a22:	0f be       	out	0x3f, r0	; 63
     a24:	8d bf       	out	0x3d, r24	; 61
     a26:	08 95       	ret
     a28:	80 e0       	ldi	r24, 0x00	; 0
     a2a:	c5 d6       	rcall	.+3466   	; 0x17b6 <lcd_goto_xy>
		//lcd_goto_xy(0,1);
		//printf("T:% .2f", rotations);
	}
	else
	{
		lcd_goto_xy(0,0);
     a2c:	80 91 e5 03 	lds	r24, 0x03E5
     a30:	90 91 e6 03 	lds	r25, 0x03E6
		printf("M:% .3f", Pm);
     a34:	a0 91 e7 03 	lds	r26, 0x03E7
     a38:	b0 91 e8 03 	lds	r27, 0x03E8
     a3c:	bf 93       	push	r27
     a3e:	af 93       	push	r26
     a40:	9f 93       	push	r25
     a42:	8f 93       	push	r24
     a44:	8a e3       	ldi	r24, 0x3A	; 58
     a46:	91 e0       	ldi	r25, 0x01	; 1
     a48:	9f 93       	push	r25
     a4a:	8f 93       	push	r24
     a4c:	0e 94 f7 1f 	call	0x3fee	; 0x3fee <printf>
     a50:	61 e0       	ldi	r22, 0x01	; 1
     a52:	80 e0       	ldi	r24, 0x00	; 0
     a54:	b0 d6       	rcall	.+3424   	; 0x17b6 <lcd_goto_xy>
		lcd_goto_xy(0,1);
     a56:	80 91 e9 03 	lds	r24, 0x03E9
     a5a:	90 91 ea 03 	lds	r25, 0x03EA
		printf("T:% .3f", Pr);
     a5e:	a0 91 eb 03 	lds	r26, 0x03EB
     a62:	b0 91 ec 03 	lds	r27, 0x03EC
     a66:	bf 93       	push	r27
     a68:	af 93       	push	r26
     a6a:	9f 93       	push	r25
     a6c:	8f 93       	push	r24
     a6e:	89 e4       	ldi	r24, 0x49	; 73
     a70:	91 e0       	ldi	r25, 0x01	; 1
     a72:	9f 93       	push	r25
     a74:	8f 93       	push	r24
     a76:	0e 94 f7 1f 	call	0x3fee	; 0x3fee <printf>
     a7a:	8d b7       	in	r24, 0x3d	; 61
     a7c:	9e b7       	in	r25, 0x3e	; 62
     a7e:	0c 96       	adiw	r24, 0x0c	; 12
     a80:	0f b6       	in	r0, 0x3f	; 63
     a82:	f8 94       	cli
     a84:	9e bf       	out	0x3e, r25	; 62
     a86:	0f be       	out	0x3f, r0	; 63
     a88:	8d bf       	out	0x3d, r24	; 61
     a8a:	08 95       	ret

00000a8c <prnt_PID>:
     a8c:	60 e0       	ldi	r22, 0x00	; 0
     a8e:	80 e0       	ldi	r24, 0x00	; 0
     a90:	92 d6       	rcall	.+3364   	; 0x17b6 <lcd_goto_xy>
     a92:	80 91 c3 03 	lds	r24, 0x03C3
}

void prnt_PID()
{
	lcd_goto_xy(0,0);
	printf("I:% .2f",integral);
     a96:	90 91 c4 03 	lds	r25, 0x03C4
     a9a:	a0 91 c5 03 	lds	r26, 0x03C5
     a9e:	b0 91 c6 03 	lds	r27, 0x03C6
     aa2:	bf 93       	push	r27
     aa4:	af 93       	push	r26
     aa6:	9f 93       	push	r25
     aa8:	8f 93       	push	r24
     aaa:	81 e5       	ldi	r24, 0x51	; 81
     aac:	91 e0       	ldi	r25, 0x01	; 1
     aae:	9f 93       	push	r25
     ab0:	8f 93       	push	r24
     ab2:	0e 94 f7 1f 	call	0x3fee	; 0x3fee <printf>
     ab6:	60 e0       	ldi	r22, 0x00	; 0
	lcd_goto_xy(8,0);
     ab8:	88 e0       	ldi	r24, 0x08	; 8
     aba:	7d d6       	rcall	.+3322   	; 0x17b6 <lcd_goto_xy>
     abc:	80 91 c7 03 	lds	r24, 0x03C7
	printf("P:% .2f", error);
     ac0:	90 91 c8 03 	lds	r25, 0x03C8
     ac4:	a0 91 c9 03 	lds	r26, 0x03C9
     ac8:	b0 91 ca 03 	lds	r27, 0x03CA
     acc:	bf 93       	push	r27
     ace:	af 93       	push	r26
     ad0:	9f 93       	push	r25
     ad2:	8f 93       	push	r24
     ad4:	89 e5       	ldi	r24, 0x59	; 89
     ad6:	91 e0       	ldi	r25, 0x01	; 1
     ad8:	9f 93       	push	r25
     ada:	8f 93       	push	r24
     adc:	0e 94 f7 1f 	call	0x3fee	; 0x3fee <printf>
     ae0:	61 e0       	ldi	r22, 0x01	; 1
     ae2:	80 e0       	ldi	r24, 0x00	; 0
	lcd_goto_xy(0,1);
     ae4:	68 d6       	rcall	.+3280   	; 0x17b6 <lcd_goto_xy>
     ae6:	80 91 bf 03 	lds	r24, 0x03BF
     aea:	90 91 c0 03 	lds	r25, 0x03C0
	printf("D:% .2f", derivative);
     aee:	a0 91 c1 03 	lds	r26, 0x03C1
     af2:	b0 91 c2 03 	lds	r27, 0x03C2
     af6:	bf 93       	push	r27
     af8:	af 93       	push	r26
     afa:	9f 93       	push	r25
     afc:	8f 93       	push	r24
     afe:	81 e6       	ldi	r24, 0x61	; 97
     b00:	91 e0       	ldi	r25, 0x01	; 1
     b02:	9f 93       	push	r25
     b04:	8f 93       	push	r24
     b06:	0e 94 f7 1f 	call	0x3fee	; 0x3fee <printf>
     b0a:	8d b7       	in	r24, 0x3d	; 61
     b0c:	9e b7       	in	r25, 0x3e	; 62
     b0e:	42 96       	adiw	r24, 0x12	; 18
     b10:	0f b6       	in	r0, 0x3f	; 63
     b12:	f8 94       	cli
     b14:	9e bf       	out	0x3e, r25	; 62
     b16:	0f be       	out	0x3f, r0	; 63
     b18:	8d bf       	out	0x3d, r24	; 61
     b1a:	08 95       	ret

00000b1c <test_engine>:
     b1c:	89 e1       	ldi	r24, 0x19	; 25
     b1e:	90 e0       	ldi	r25, 0x00	; 0
     b20:	d4 db       	rcall	.-2136   	; 0x2ca <set_motor_speed>
}

void test_engine(){
	set_motor_speed(25);
     b22:	88 ee       	ldi	r24, 0xE8	; 232
	delay_ms(1000);
     b24:	93 e0       	ldi	r25, 0x03	; 3
     b26:	0e 94 cb 11 	call	0x2396	; 0x2396 <delay_ms>
     b2a:	87 ee       	ldi	r24, 0xE7	; 231
	set_motor_speed(-25);
     b2c:	9f ef       	ldi	r25, 0xFF	; 255
     b2e:	cd db       	rcall	.-2150   	; 0x2ca <set_motor_speed>
     b30:	88 ee       	ldi	r24, 0xE8	; 232
     b32:	93 e0       	ldi	r25, 0x03	; 3
	delay_ms(1000);
     b34:	0e 94 cb 11 	call	0x2396	; 0x2396 <delay_ms>
     b38:	10 92 b3 00 	sts	0x00B3, r1
	STOP_MOTOR;
     b3c:	08 95       	ret

00000b3e <killMotor>:
     b3e:	10 92 d9 03 	sts	0x03D9, r1
}

void killMotor()
{
	Kp = 0;
     b42:	10 92 da 03 	sts	0x03DA, r1
     b46:	10 92 db 03 	sts	0x03DB, r1
     b4a:	10 92 dc 03 	sts	0x03DC, r1
	Ki = 0;
     b4e:	10 92 d5 03 	sts	0x03D5, r1
     b52:	10 92 d6 03 	sts	0x03D6, r1
     b56:	10 92 d7 03 	sts	0x03D7, r1
     b5a:	10 92 d8 03 	sts	0x03D8, r1
	Kd = 0;
     b5e:	10 92 d1 03 	sts	0x03D1, r1
     b62:	10 92 d2 03 	sts	0x03D2, r1
     b66:	10 92 d3 03 	sts	0x03D3, r1
     b6a:	10 92 d4 03 	sts	0x03D4, r1
	set_motor_speed(0);
     b6e:	80 e0       	ldi	r24, 0x00	; 0
     b70:	90 e0       	ldi	r25, 0x00	; 0
     b72:	ab db       	rcall	.-2218   	; 0x2ca <set_motor_speed>
     b74:	10 92 d0 03 	sts	0x03D0, r1
	execTragectory = false;
     b78:	08 95       	ret

00000b7a <main>:
     b7a:	cf 93       	push	r28
}

int main()
{
     b7c:	df 93       	push	r29
     b7e:	cd b7       	in	r28, 0x3d	; 61
     b80:	de b7       	in	r29, 0x3e	; 62
     b82:	e0 97       	sbiw	r28, 0x30	; 48
     b84:	0f b6       	in	r0, 0x3f	; 63
     b86:	f8 94       	cli
     b88:	de bf       	out	0x3e, r29	; 62
     b8a:	0f be       	out	0x3f, r0	; 63
     b8c:	cd bf       	out	0x3d, r28	; 61
	clear();
     b8e:	f2 d5       	rcall	.+3044   	; 0x1774 <clear>
     b90:	63 d7       	rcall	.+3782   	; 0x1a58 <lcd_init_printf>
	lcd_init_printf();
     b92:	dc d2       	rcall	.+1464   	; 0x114c <init_menu>
     b94:	7a db       	rcall	.-2316   	; 0x28a <init_my_timers>
	init_menu();
     b96:	78 94       	sei
     b98:	8e 01       	movw	r16, r28
	init_my_timers();
     b9a:	0f 5f       	subi	r16, 0xFF	; 255
     b9c:	1f 4f       	sbci	r17, 0xFF	; 255
	sei();
     b9e:	84 e7       	ldi	r24, 0x74	; 116
						lastStep = 3;
						break;
					}
					default:
					{
						length = sprintf(tempBuffer, "\r\nS Done\r\n");
     ba0:	e8 2e       	mov	r14, r24
     ba2:	81 e0       	ldi	r24, 0x01	; 1
     ba4:	f8 2e       	mov	r15, r24
					loggerUSB = false;
					timer1_cnt = 0;
				}
				else
				{
					length = sprintf(tempBuffer, "\r\n% .2f,% .2f,%d", Pm, Pr, newMotorSpeed);
     ba6:	91 e0       	ldi	r25, 0x01	; 1
     ba8:	29 2e       	mov	r2, r25
     baa:	92 e0       	ldi	r25, 0x02	; 2
     bac:	39 2e       	mov	r3, r25
					length = sprintf(tempBuffer, "\r\nV: %.3f,%.0f,%.0f,%d,%ld",error, Vm, Vr, newMotorSpeed,timer1_cnt);
					print_usb(tempBuffer, length);
				}
				else if (!velocity && loggerUSB)
				{
					length = sprintf(tempBuffer, "\r\nP: %.3f,%.0f,%.0f,%d,%ld",error, Pm, Pr, newMotorSpeed,timer1_cnt);
     bae:	28 ec       	ldi	r18, 0xC8	; 200
     bb0:	c2 2e       	mov	r12, r18
     bb2:	21 e0       	ldi	r18, 0x01	; 1
     bb4:	d2 2e       	mov	r13, r18
		}
		if (dbgLCD)
		{
			if(execTragectory)
			{
				length = sprintf(tempBuffer, "\r\n% .2f,% .2f,%d,%ld,%d,%d,%d", Pm, Pr, newMotorSpeed,timer1_cnt,step, lastStep, (int)execTragectory);
     bb6:	80 91 fa 03 	lds	r24, 0x03FA
     bba:	88 23       	and	r24, r24
     bbc:	39 f0       	breq	.+14     	; 0xbcc <main+0x52>
	int length;
	char tempBuffer[48];
	
	while(1)
	{
		if (clearLCD)
     bbe:	da d5       	rcall	.+2996   	; 0x1774 <clear>
     bc0:	80 91 fa 03 	lds	r24, 0x03FA
     bc4:	21 e0       	ldi	r18, 0x01	; 1
		{
			clear();
     bc6:	82 27       	eor	r24, r18
     bc8:	80 93 fa 03 	sts	0x03FA, r24
			clearLCD = !clearLCD;
     bcc:	80 91 d0 03 	lds	r24, 0x03D0
     bd0:	88 23       	and	r24, r24
     bd2:	09 f4       	brne	.+2      	; 0xbd6 <main+0x5c>
     bd4:	65 c0       	rjmp	.+202    	; 0xca0 <main+0x126>
		}
		if (execTragectory)
     bd6:	20 91 26 01 	lds	r18, 0x0126
     bda:	30 91 27 01 	lds	r19, 0x0127
     bde:	80 91 ed 03 	lds	r24, 0x03ED
		{
			if (step != lastStep)
     be2:	90 91 ee 03 	lds	r25, 0x03EE
     be6:	28 17       	cp	r18, r24
     be8:	39 07       	cpc	r19, r25
     bea:	09 f4       	brne	.+2      	; 0xbee <main+0x74>
     bec:	59 c0       	rjmp	.+178    	; 0xca0 <main+0x126>
     bee:	60 90 26 01 	lds	r6, 0x0126
     bf2:	70 90 27 01 	lds	r7, 0x0127
     bf6:	32 e0       	ldi	r19, 0x02	; 2
			{
				switch (step)
     bf8:	63 16       	cp	r6, r19
     bfa:	71 04       	cpc	r7, r1
     bfc:	a9 f0       	breq	.+42     	; 0xc28 <main+0xae>
     bfe:	83 e0       	ldi	r24, 0x03	; 3
     c00:	68 16       	cp	r6, r24
     c02:	71 04       	cpc	r7, r1
     c04:	61 f1       	breq	.+88     	; 0xc5e <main+0xe4>
     c06:	91 e0       	ldi	r25, 0x01	; 1
     c08:	69 16       	cp	r6, r25
     c0a:	71 04       	cpc	r7, r1
     c0c:	b9 f5       	brne	.+110    	; 0xc7c <main+0x102>
     c0e:	60 91 e9 03 	lds	r22, 0x03E9
     c12:	70 91 ea 03 	lds	r23, 0x03EA
     c16:	80 91 eb 03 	lds	r24, 0x03EB
				{
					case 1:
					{
						Pr = Pr + deg_to_cnt(90);
     c1a:	90 91 ec 03 	lds	r25, 0x03EC
     c1e:	2f ed       	ldi	r18, 0xDF	; 223
     c20:	3f e8       	ldi	r19, 0x8F	; 143
     c22:	4c e0       	ldi	r20, 0x0C	; 12
     c24:	54 e4       	ldi	r21, 0x44	; 68
     c26:	27 c0       	rjmp	.+78     	; 0xc76 <main+0xfc>
     c28:	60 91 e9 03 	lds	r22, 0x03E9
     c2c:	70 91 ea 03 	lds	r23, 0x03EA
     c30:	80 91 eb 03 	lds	r24, 0x03EB
						lastStep = 1;
						break;
					}
					case 2:
					{
						Pr = Pr -(deg_to_cnt(360));
     c34:	90 91 ec 03 	lds	r25, 0x03EC
     c38:	2f ed       	ldi	r18, 0xDF	; 223
     c3a:	3f e8       	ldi	r19, 0x8F	; 143
     c3c:	4c e0       	ldi	r20, 0x0C	; 12
     c3e:	55 e4       	ldi	r21, 0x45	; 69
     c40:	0e 94 36 12 	call	0x246c	; 0x246c <__subsf3>
     c44:	60 93 e9 03 	sts	0x03E9, r22
     c48:	70 93 ea 03 	sts	0x03EA, r23
     c4c:	80 93 eb 03 	sts	0x03EB, r24
     c50:	90 93 ec 03 	sts	0x03EC, r25
     c54:	70 92 ee 03 	sts	0x03EE, r7
     c58:	60 92 ed 03 	sts	0x03ED, r6
     c5c:	21 c0       	rjmp	.+66     	; 0xca0 <main+0x126>
						//length = sprintf(tempBuffer, "\r\ns2 Pr:% .3f", Pr);
						//print_usb(tempBuffer, length);
						lastStep = 2;
     c5e:	60 91 e9 03 	lds	r22, 0x03E9
     c62:	70 91 ea 03 	lds	r23, 0x03EA
						break;
     c66:	80 91 eb 03 	lds	r24, 0x03EB
					}
					case 3:
					{
						Pr = Pr + deg_to_cnt(5);
     c6a:	90 91 ec 03 	lds	r25, 0x03EC
     c6e:	24 e5       	ldi	r18, 0x54	; 84
     c70:	33 ee       	ldi	r19, 0xE3	; 227
     c72:	49 ef       	ldi	r20, 0xF9	; 249
     c74:	51 e4       	ldi	r21, 0x41	; 65
     c76:	0e 94 37 12 	call	0x246e	; 0x246e <__addsf3>
     c7a:	e4 cf       	rjmp	.-56     	; 0xc44 <main+0xca>
     c7c:	69 e6       	ldi	r22, 0x69	; 105
     c7e:	71 e0       	ldi	r23, 0x01	; 1
     c80:	c8 01       	movw	r24, r16
     c82:	0e 94 2b 1f 	call	0x3e56	; 0x3e56 <strcpy>
						lastStep = 3;
						break;
					}
					default:
					{
						length = sprintf(tempBuffer, "\r\nS Done\r\n");
     c86:	6a e0       	ldi	r22, 0x0A	; 10
     c88:	70 e0       	ldi	r23, 0x00	; 0
     c8a:	c8 01       	movw	r24, r16
     c8c:	de d1       	rcall	.+956    	; 0x104a <print_usb>
     c8e:	10 92 d0 03 	sts	0x03D0, r1
						print_usb(tempBuffer, length);
     c92:	a1 e0       	ldi	r26, 0x01	; 1
     c94:	b0 e0       	ldi	r27, 0x00	; 0
     c96:	b0 93 27 01 	sts	0x0127, r27
						execTragectory = false;
     c9a:	a0 93 26 01 	sts	0x0126, r26
						step = 1;
     c9e:	4f df       	rcall	.-354    	; 0xb3e <killMotor>
     ca0:	80 91 f9 03 	lds	r24, 0x03F9
     ca4:	88 23       	and	r24, r24
     ca6:	09 f4       	brne	.+2      	; 0xcaa <main+0x130>
     ca8:	59 c0       	rjmp	.+178    	; 0xd5c <main+0x1e2>
						killMotor();
     caa:	80 91 f8 03 	lds	r24, 0x03F8
						break;
					}
				}
			}
		}
		if (logger)
     cae:	88 23       	and	r24, r24
     cb0:	09 f4       	brne	.+2      	; 0xcb4 <main+0x13a>
     cb2:	54 c0       	rjmp	.+168    	; 0xd5c <main+0x1e2>
     cb4:	80 91 f6 03 	lds	r24, 0x03F6
		{
			if(loggerUSB)
     cb8:	90 91 f7 03 	lds	r25, 0x03F7
     cbc:	01 96       	adiw	r24, 0x01	; 1
     cbe:	90 93 f7 03 	sts	0x03F7, r25
			{
				logger_cnt++;
     cc2:	80 93 f6 03 	sts	0x03F6, r24
     cc6:	80 91 cf 03 	lds	r24, 0x03CF
     cca:	20 91 cb 03 	lds	r18, 0x03CB
     cce:	30 91 cc 03 	lds	r19, 0x03CC
     cd2:	88 23       	and	r24, r24
				if (velocity)
     cd4:	89 f0       	breq	.+34     	; 0xcf8 <main+0x17e>
     cd6:	40 91 e1 03 	lds	r20, 0x03E1
				{
					length = sprintf(tempBuffer, "\r\n% .2f,% .2f,%d", RPM, Vr, newMotorSpeed);
     cda:	50 91 e2 03 	lds	r21, 0x03E2
     cde:	60 91 e3 03 	lds	r22, 0x03E3
		if (logger)
		{
			if(loggerUSB)
			{
				logger_cnt++;
				if (velocity)
     ce2:	70 91 e4 03 	lds	r23, 0x03E4
				{
					length = sprintf(tempBuffer, "\r\n% .2f,% .2f,%d", RPM, Vr, newMotorSpeed);
     ce6:	80 91 bb 03 	lds	r24, 0x03BB
     cea:	90 91 bc 03 	lds	r25, 0x03BC
     cee:	a0 91 bd 03 	lds	r26, 0x03BD
     cf2:	b0 91 be 03 	lds	r27, 0x03BE
     cf6:	10 c0       	rjmp	.+32     	; 0xd18 <main+0x19e>
     cf8:	40 91 e9 03 	lds	r20, 0x03E9
     cfc:	50 91 ea 03 	lds	r21, 0x03EA
     d00:	60 91 eb 03 	lds	r22, 0x03EB
     d04:	70 91 ec 03 	lds	r23, 0x03EC
					loggerUSB = false;
					timer1_cnt = 0;
				}
				else
				{
					length = sprintf(tempBuffer, "\r\n% .2f,% .2f,%d", Pm, Pr, newMotorSpeed);
     d08:	80 91 e5 03 	lds	r24, 0x03E5
     d0c:	90 91 e6 03 	lds	r25, 0x03E6
     d10:	a0 91 e7 03 	lds	r26, 0x03E7
     d14:	b0 91 e8 03 	lds	r27, 0x03E8
     d18:	3f 93       	push	r19
     d1a:	2f 93       	push	r18
     d1c:	7f 93       	push	r23
     d1e:	6f 93       	push	r22
     d20:	5f 93       	push	r21
     d22:	4f 93       	push	r20
     d24:	bf 93       	push	r27
     d26:	af 93       	push	r26
     d28:	9f 93       	push	r25
     d2a:	8f 93       	push	r24
     d2c:	ff 92       	push	r15
     d2e:	ef 92       	push	r14
     d30:	1f 93       	push	r17
     d32:	0f 93       	push	r16
     d34:	0e 94 09 20 	call	0x4012	; 0x4012 <sprintf>
     d38:	bc 01       	movw	r22, r24
     d3a:	c8 01       	movw	r24, r16
     d3c:	86 d1       	rcall	.+780    	; 0x104a <print_usb>
     d3e:	10 92 f8 03 	sts	0x03F8, r1
     d42:	10 92 ef 03 	sts	0x03EF, r1
					print_usb(tempBuffer, length);
     d46:	10 92 f0 03 	sts	0x03F0, r1
     d4a:	10 92 f1 03 	sts	0x03F1, r1
					loggerUSB = false;
     d4e:	10 92 f2 03 	sts	0x03F2, r1
					timer1_cnt = 0;
     d52:	0f b6       	in	r0, 0x3f	; 63
     d54:	f8 94       	cli
     d56:	de bf       	out	0x3e, r29	; 62
     d58:	0f be       	out	0x3f, r0	; 63
     d5a:	cd bf       	out	0x3d, r28	; 61
     d5c:	80 91 f9 03 	lds	r24, 0x03F9
     d60:	81 11       	cpse	r24, r1
     d62:	0c c0       	rjmp	.+24     	; 0xd7c <main+0x202>
     d64:	80 91 f6 03 	lds	r24, 0x03F6
     d68:	90 91 f7 03 	lds	r25, 0x03F7
				}
			}
		}
		if (!logger && (logger_cnt > 0))
     d6c:	18 16       	cp	r1, r24
     d6e:	19 06       	cpc	r1, r25
     d70:	2c f4       	brge	.+10     	; 0xd7c <main+0x202>
     d72:	98 d1       	rcall	.+816    	; 0x10a4 <print_menu>
     d74:	10 92 f7 03 	sts	0x03F7, r1
     d78:	10 92 f6 03 	sts	0x03F6, r1
     d7c:	80 91 f4 03 	lds	r24, 0x03F4
     d80:	88 23       	and	r24, r24
		{
			print_menu();
     d82:	09 f4       	brne	.+2      	; 0xd86 <main+0x20c>
     d84:	71 c0       	rjmp	.+226    	; 0xe68 <main+0x2ee>
			logger_cnt = 0;
     d86:	40 90 d1 03 	lds	r4, 0x03D1
     d8a:	50 90 d2 03 	lds	r5, 0x03D2
		}
		if (prntKs)
     d8e:	60 90 d3 03 	lds	r6, 0x03D3
     d92:	70 90 d4 03 	lds	r7, 0x03D4
     d96:	40 91 d5 03 	lds	r20, 0x03D5
		{
			length = sprintf(tempBuffer, "\r\nKp:% .4f Ki:% .4f Kd:% .4f\r\n", Kp, Ki, Kd);
     d9a:	50 91 d6 03 	lds	r21, 0x03D6
     d9e:	60 91 d7 03 	lds	r22, 0x03D7
     da2:	70 91 d8 03 	lds	r23, 0x03D8
     da6:	80 91 d9 03 	lds	r24, 0x03D9
     daa:	90 91 da 03 	lds	r25, 0x03DA
     dae:	a0 91 db 03 	lds	r26, 0x03DB
     db2:	b0 91 dc 03 	lds	r27, 0x03DC
     db6:	7f 92       	push	r7
     db8:	6f 92       	push	r6
     dba:	5f 92       	push	r5
     dbc:	4f 92       	push	r4
     dbe:	7f 93       	push	r23
     dc0:	6f 93       	push	r22
     dc2:	5f 93       	push	r21
     dc4:	4f 93       	push	r20
     dc6:	bf 93       	push	r27
     dc8:	af 93       	push	r26
     dca:	9f 93       	push	r25
     dcc:	8f 93       	push	r24
     dce:	a5 e8       	ldi	r26, 0x85	; 133
     dd0:	b1 e0       	ldi	r27, 0x01	; 1
     dd2:	bf 93       	push	r27
     dd4:	af 93       	push	r26
     dd6:	1f 93       	push	r17
     dd8:	0f 93       	push	r16
     dda:	0e 94 09 20 	call	0x4012	; 0x4012 <sprintf>
     dde:	bc 01       	movw	r22, r24
     de0:	c8 01       	movw	r24, r16
     de2:	33 d1       	rcall	.+614    	; 0x104a <print_usb>
     de4:	20 91 ed 03 	lds	r18, 0x03ED
     de8:	30 91 ee 03 	lds	r19, 0x03EE
     dec:	80 91 26 01 	lds	r24, 0x0126
			print_usb(tempBuffer, length);
     df0:	90 91 27 01 	lds	r25, 0x0127
     df4:	3f 93       	push	r19
     df6:	2f 93       	push	r18
			length = sprintf(tempBuffer, "Step:%d LastStep:%d\r\n", step, lastStep);
     df8:	9f 93       	push	r25
     dfa:	8f 93       	push	r24
     dfc:	a4 ea       	ldi	r26, 0xA4	; 164
     dfe:	b1 e0       	ldi	r27, 0x01	; 1
     e00:	bf 93       	push	r27
     e02:	af 93       	push	r26
     e04:	1f 93       	push	r17
     e06:	0f 93       	push	r16
     e08:	0e 94 09 20 	call	0x4012	; 0x4012 <sprintf>
     e0c:	bc 01       	movw	r22, r24
     e0e:	c8 01       	movw	r24, r16
     e10:	1c d1       	rcall	.+568    	; 0x104a <print_usb>
     e12:	80 91 ef 03 	lds	r24, 0x03EF
     e16:	90 91 f0 03 	lds	r25, 0x03F0
     e1a:	a0 91 f1 03 	lds	r26, 0x03F1
     e1e:	b0 91 f2 03 	lds	r27, 0x03F2
			print_usb(tempBuffer, length);
     e22:	30 91 f3 03 	lds	r19, 0x03F3
     e26:	20 91 f8 03 	lds	r18, 0x03F8
			length = sprintf(tempBuffer, "%d,%d,t:%ld\r\n", (int)loggerUSB, (int)dbgLCD, timer1_cnt);
     e2a:	bf 93       	push	r27
     e2c:	af 93       	push	r26
     e2e:	9f 93       	push	r25
     e30:	8f 93       	push	r24
     e32:	1f 92       	push	r1
     e34:	3f 93       	push	r19
     e36:	1f 92       	push	r1
     e38:	2f 93       	push	r18
     e3a:	aa eb       	ldi	r26, 0xBA	; 186
     e3c:	b1 e0       	ldi	r27, 0x01	; 1
     e3e:	bf 93       	push	r27
     e40:	af 93       	push	r26
     e42:	1f 93       	push	r17
     e44:	0f 93       	push	r16
     e46:	0e 94 09 20 	call	0x4012	; 0x4012 <sprintf>
     e4a:	0f b6       	in	r0, 0x3f	; 63
     e4c:	f8 94       	cli
     e4e:	de bf       	out	0x3e, r29	; 62
     e50:	0f be       	out	0x3f, r0	; 63
     e52:	cd bf       	out	0x3d, r28	; 61
     e54:	bc 01       	movw	r22, r24
     e56:	c8 01       	movw	r24, r16
     e58:	f8 d0       	rcall	.+496    	; 0x104a <print_usb>
     e5a:	80 91 f4 03 	lds	r24, 0x03F4
     e5e:	b1 e0       	ldi	r27, 0x01	; 1
			print_usb(tempBuffer, length);
     e60:	8b 27       	eor	r24, r27
     e62:	80 93 f4 03 	sts	0x03F4, r24
     e66:	1e d1       	rcall	.+572    	; 0x10a4 <print_menu>
     e68:	80 91 f3 03 	lds	r24, 0x03F3
     e6c:	88 23       	and	r24, r24
     e6e:	09 f4       	brne	.+2      	; 0xe72 <main+0x2f8>
     e70:	e0 c0       	rjmp	.+448    	; 0x1032 <main+0x4b8>
			prntKs = !prntKs;
     e72:	80 91 d0 03 	lds	r24, 0x03D0
     e76:	88 23       	and	r24, r24
     e78:	09 f4       	brne	.+2      	; 0xe7c <main+0x302>
     e7a:	41 c0       	rjmp	.+130    	; 0xefe <main+0x384>
     e7c:	a0 91 d0 03 	lds	r26, 0x03D0
			print_menu();
     e80:	e0 91 ed 03 	lds	r30, 0x03ED
		}
		if (dbgLCD)
     e84:	f0 91 ee 03 	lds	r31, 0x03EE
     e88:	20 91 26 01 	lds	r18, 0x0126
		{
			if(execTragectory)
     e8c:	30 91 27 01 	lds	r19, 0x0127
     e90:	80 90 ef 03 	lds	r8, 0x03EF
     e94:	90 90 f0 03 	lds	r9, 0x03F0
			{
				length = sprintf(tempBuffer, "\r\n% .2f,% .2f,%d,%ld,%d,%d,%d", Pm, Pr, newMotorSpeed,timer1_cnt,step, lastStep, (int)execTragectory);
     e98:	a0 90 f1 03 	lds	r10, 0x03F1
     e9c:	b0 90 f2 03 	lds	r11, 0x03F2
     ea0:	80 91 cb 03 	lds	r24, 0x03CB
     ea4:	90 91 cc 03 	lds	r25, 0x03CC
     ea8:	40 90 e9 03 	lds	r4, 0x03E9
     eac:	50 90 ea 03 	lds	r5, 0x03EA
     eb0:	60 90 eb 03 	lds	r6, 0x03EB
     eb4:	70 90 ec 03 	lds	r7, 0x03EC
     eb8:	40 91 e5 03 	lds	r20, 0x03E5
     ebc:	50 91 e6 03 	lds	r21, 0x03E6
     ec0:	60 91 e7 03 	lds	r22, 0x03E7
     ec4:	70 91 e8 03 	lds	r23, 0x03E8
     ec8:	1f 92       	push	r1
     eca:	af 93       	push	r26
     ecc:	ff 93       	push	r31
     ece:	ef 93       	push	r30
     ed0:	3f 93       	push	r19
     ed2:	2f 93       	push	r18
     ed4:	bf 92       	push	r11
     ed6:	af 92       	push	r10
     ed8:	9f 92       	push	r9
     eda:	8f 92       	push	r8
     edc:	9f 93       	push	r25
     ede:	8f 93       	push	r24
     ee0:	7f 92       	push	r7
     ee2:	6f 92       	push	r6
     ee4:	5f 92       	push	r5
     ee6:	4f 92       	push	r4
     ee8:	7f 93       	push	r23
     eea:	6f 93       	push	r22
     eec:	5f 93       	push	r21
     eee:	4f 93       	push	r20
     ef0:	df 92       	push	r13
     ef2:	cf 92       	push	r12
     ef4:	1f 93       	push	r17
     ef6:	0f 93       	push	r16
     ef8:	0e 94 09 20 	call	0x4012	; 0x4012 <sprintf>
     efc:	90 c0       	rjmp	.+288    	; 0x101e <main+0x4a4>
     efe:	80 91 f5 03 	lds	r24, 0x03F5
     f02:	88 23       	and	r24, r24
     f04:	11 f0       	breq	.+4      	; 0xf0a <main+0x390>
     f06:	c2 dd       	rcall	.-1148   	; 0xa8c <prnt_PID>
     f08:	01 c0       	rjmp	.+2      	; 0xf0c <main+0x392>
     f0a:	57 dd       	rcall	.-1362   	; 0x9ba <prnt_mtr_vals>
     f0c:	80 91 cf 03 	lds	r24, 0x03CF
     f10:	88 23       	and	r24, r24
     f12:	09 f4       	brne	.+2      	; 0xf16 <main+0x39c>
     f14:	3f c0       	rjmp	.+126    	; 0xf94 <main+0x41a>
     f16:	80 91 f8 03 	lds	r24, 0x03F8
				print_usb(tempBuffer, length);
			}
			else
			{
				if(toggleLCD)
     f1a:	88 23       	and	r24, r24
     f1c:	d9 f1       	breq	.+118    	; 0xf94 <main+0x41a>
     f1e:	80 90 ef 03 	lds	r8, 0x03EF
				{
					prnt_PID();
     f22:	90 90 f0 03 	lds	r9, 0x03F0
				}
				else
				{
					prnt_mtr_vals();
     f26:	a0 90 f1 03 	lds	r10, 0x03F1
				}
				
				if (velocity && loggerUSB)
     f2a:	b0 90 f2 03 	lds	r11, 0x03F2
     f2e:	20 91 cb 03 	lds	r18, 0x03CB
     f32:	30 91 cc 03 	lds	r19, 0x03CC
     f36:	40 90 e1 03 	lds	r4, 0x03E1
     f3a:	50 90 e2 03 	lds	r5, 0x03E2
				{
					length = sprintf(tempBuffer, "\r\nV: %.3f,%.0f,%.0f,%d,%ld",error, Vm, Vr, newMotorSpeed,timer1_cnt);
     f3e:	60 90 e3 03 	lds	r6, 0x03E3
     f42:	70 90 e4 03 	lds	r7, 0x03E4
     f46:	40 91 dd 03 	lds	r20, 0x03DD
     f4a:	50 91 de 03 	lds	r21, 0x03DE
     f4e:	60 91 df 03 	lds	r22, 0x03DF
     f52:	70 91 e0 03 	lds	r23, 0x03E0
     f56:	80 91 c7 03 	lds	r24, 0x03C7
     f5a:	90 91 c8 03 	lds	r25, 0x03C8
     f5e:	a0 91 c9 03 	lds	r26, 0x03C9
     f62:	b0 91 ca 03 	lds	r27, 0x03CA
     f66:	bf 92       	push	r11
     f68:	af 92       	push	r10
     f6a:	9f 92       	push	r9
     f6c:	8f 92       	push	r8
     f6e:	3f 93       	push	r19
     f70:	2f 93       	push	r18
     f72:	7f 92       	push	r7
     f74:	6f 92       	push	r6
     f76:	5f 92       	push	r5
     f78:	4f 92       	push	r4
     f7a:	7f 93       	push	r23
     f7c:	6f 93       	push	r22
     f7e:	5f 93       	push	r21
     f80:	4f 93       	push	r20
     f82:	bf 93       	push	r27
     f84:	af 93       	push	r26
     f86:	9f 93       	push	r25
     f88:	8f 93       	push	r24
     f8a:	a6 ee       	ldi	r26, 0xE6	; 230
     f8c:	b1 e0       	ldi	r27, 0x01	; 1
     f8e:	bf 93       	push	r27
     f90:	af 93       	push	r26
     f92:	41 c0       	rjmp	.+130    	; 0x1016 <main+0x49c>
     f94:	80 91 cf 03 	lds	r24, 0x03CF
     f98:	81 11       	cpse	r24, r1
     f9a:	49 c0       	rjmp	.+146    	; 0x102e <main+0x4b4>
     f9c:	80 91 f8 03 	lds	r24, 0x03F8
     fa0:	88 23       	and	r24, r24
     fa2:	09 f4       	brne	.+2      	; 0xfa6 <main+0x42c>
     fa4:	44 c0       	rjmp	.+136    	; 0x102e <main+0x4b4>
     fa6:	80 90 ef 03 	lds	r8, 0x03EF
     faa:	90 90 f0 03 	lds	r9, 0x03F0
     fae:	a0 90 f1 03 	lds	r10, 0x03F1
					print_usb(tempBuffer, length);
				}
				else if (!velocity && loggerUSB)
     fb2:	b0 90 f2 03 	lds	r11, 0x03F2
     fb6:	20 91 cb 03 	lds	r18, 0x03CB
     fba:	30 91 cc 03 	lds	r19, 0x03CC
     fbe:	40 90 e9 03 	lds	r4, 0x03E9
     fc2:	50 90 ea 03 	lds	r5, 0x03EA
				{
					length = sprintf(tempBuffer, "\r\nP: %.3f,%.0f,%.0f,%d,%ld",error, Pm, Pr, newMotorSpeed,timer1_cnt);
     fc6:	60 90 eb 03 	lds	r6, 0x03EB
     fca:	70 90 ec 03 	lds	r7, 0x03EC
     fce:	40 91 e5 03 	lds	r20, 0x03E5
     fd2:	50 91 e6 03 	lds	r21, 0x03E6
     fd6:	60 91 e7 03 	lds	r22, 0x03E7
     fda:	70 91 e8 03 	lds	r23, 0x03E8
     fde:	80 91 c7 03 	lds	r24, 0x03C7
     fe2:	90 91 c8 03 	lds	r25, 0x03C8
     fe6:	a0 91 c9 03 	lds	r26, 0x03C9
     fea:	b0 91 ca 03 	lds	r27, 0x03CA
     fee:	bf 92       	push	r11
     ff0:	af 92       	push	r10
     ff2:	9f 92       	push	r9
     ff4:	8f 92       	push	r8
     ff6:	3f 93       	push	r19
     ff8:	2f 93       	push	r18
     ffa:	7f 92       	push	r7
     ffc:	6f 92       	push	r6
     ffe:	5f 92       	push	r5
    1000:	4f 92       	push	r4
    1002:	7f 93       	push	r23
    1004:	6f 93       	push	r22
    1006:	5f 93       	push	r21
    1008:	4f 93       	push	r20
    100a:	bf 93       	push	r27
    100c:	af 93       	push	r26
    100e:	9f 93       	push	r25
    1010:	8f 93       	push	r24
    1012:	3f 92       	push	r3
    1014:	2f 92       	push	r2
    1016:	1f 93       	push	r17
    1018:	0f 93       	push	r16
    101a:	0e 94 09 20 	call	0x4012	; 0x4012 <sprintf>
    101e:	bc 01       	movw	r22, r24
    1020:	c8 01       	movw	r24, r16
    1022:	13 d0       	rcall	.+38     	; 0x104a <print_usb>
    1024:	0f b6       	in	r0, 0x3f	; 63
    1026:	f8 94       	cli
    1028:	de bf       	out	0x3e, r29	; 62
    102a:	0f be       	out	0x3f, r0	; 63
    102c:	cd bf       	out	0x3d, r28	; 61
    102e:	10 92 f3 03 	sts	0x03F3, r1
    1032:	0e 94 f6 10 	call	0x21ec	; 0x21ec <serial_check>
    1036:	4e d2       	rcall	.+1180   	; 0x14d4 <check_for_new_bytes_received>
    1038:	be cd       	rjmp	.-1156   	; 0xbb6 <main+0x3c>

0000103a <wait_for_sending_to_finish>:
// finish transmitting on USB_COMM.  We must call this before modifying
// send_buffer or trying to send more bytes, because otherwise we could
// corrupt an existing transmission.
void wait_for_sending_to_finish()
{
	while(!serial_send_buffer_empty(USB_COMM))
    103a:	82 e0       	ldi	r24, 0x02	; 2
    103c:	1f d5       	rcall	.+2622   	; 0x1a7c <serial_send_buffer_empty>
    103e:	81 11       	cpse	r24, r1
    1040:	03 c0       	rjmp	.+6      	; 0x1048 <wait_for_sending_to_finish+0xe>
    1042:	0e 94 f6 10 	call	0x21ec	; 0x21ec <serial_check>
	serial_check();		// USB_COMM port is always in SERIAL_CHECK mode
    1046:	f9 cf       	rjmp	.-14     	; 0x103a <wait_for_sending_to_finish>
    1048:	08 95       	ret

0000104a <print_usb>:
}
    104a:	46 2f       	mov	r20, r22
char send_buffer[48];
// A generic function for whenever you want to print to your serial comm window.
// Provide a string and the length of that string. My serial comm likes "\r\n" at
// the end of each string (be sure to include in length) for proper linefeed.
void print_usb( char *buffer, int n ){
	serial_send( USB_COMM, buffer, n );
    104c:	bc 01       	movw	r22, r24
    104e:	82 e0       	ldi	r24, 0x02	; 2
    1050:	0e 94 2a 11 	call	0x2254	; 0x2254 <serial_send>
	wait_for_sending_to_finish();
    1054:	f2 cf       	rjmp	.-28     	; 0x103a <wait_for_sending_to_finish>

00001056 <pre_print_usb>:
    1056:	0f 93       	push	r16
	print_usb(tempBuffer, length);

	pre_print_usb("Menu: <char> <float>\r\n");
	pre_print_usb("TYPE {Hh?} for help: ");
}
void pre_print_usb( char *buffer){
    1058:	1f 93       	push	r17
    105a:	cf 93       	push	r28
    105c:	df 93       	push	r29
    105e:	cd b7       	in	r28, 0x3d	; 61
    1060:	de b7       	in	r29, 0x3e	; 62
    1062:	e0 97       	sbiw	r28, 0x30	; 48
    1064:	0f b6       	in	r0, 0x3f	; 63
    1066:	f8 94       	cli
    1068:	de bf       	out	0x3e, r29	; 62
    106a:	0f be       	out	0x3f, r0	; 63
    106c:	cd bf       	out	0x3d, r28	; 61
	int length;
	char tempBuffer[48];

	length = sprintf(tempBuffer, buffer);
    106e:	9f 93       	push	r25
    1070:	8f 93       	push	r24
    1072:	8e 01       	movw	r16, r28
    1074:	0f 5f       	subi	r16, 0xFF	; 255
    1076:	1f 4f       	sbci	r17, 0xFF	; 255
    1078:	1f 93       	push	r17
    107a:	0f 93       	push	r16
    107c:	0e 94 09 20 	call	0x4012	; 0x4012 <sprintf>
	print_usb(tempBuffer, length);
    1080:	bc 01       	movw	r22, r24
    1082:	c8 01       	movw	r24, r16
    1084:	e2 df       	rcall	.-60     	; 0x104a <print_usb>
    1086:	0f 90       	pop	r0
    1088:	0f 90       	pop	r0
    108a:	0f 90       	pop	r0
    108c:	0f 90       	pop	r0
    108e:	e0 96       	adiw	r28, 0x30	; 48
}
    1090:	0f b6       	in	r0, 0x3f	; 63
    1092:	f8 94       	cli
    1094:	de bf       	out	0x3e, r29	; 62
    1096:	0f be       	out	0x3f, r0	; 63
    1098:	cd bf       	out	0x3d, r28	; 61
    109a:	df 91       	pop	r29
    109c:	cf 91       	pop	r28
    109e:	1f 91       	pop	r17
    10a0:	0f 91       	pop	r16
    10a2:	08 95       	ret

000010a4 <print_menu>:
    10a4:	0f 93       	push	r16
// the end of each string (be sure to include in length) for proper linefeed.
void print_usb( char *buffer, int n ){
	serial_send( USB_COMM, buffer, n );
	wait_for_sending_to_finish();
}
void print_menu(){
    10a6:	1f 93       	push	r17
    10a8:	cf 93       	push	r28
    10aa:	df 93       	push	r29
    10ac:	cd b7       	in	r28, 0x3d	; 61
    10ae:	de b7       	in	r29, 0x3e	; 62
    10b0:	e0 97       	sbiw	r28, 0x30	; 48
    10b2:	0f b6       	in	r0, 0x3f	; 63
    10b4:	f8 94       	cli
    10b6:	de bf       	out	0x3e, r29	; 62
    10b8:	0f be       	out	0x3f, r0	; 63
    10ba:	cd bf       	out	0x3d, r28	; 61
	int length;
	char tempBuffer[48];
	
	length = sprintf(tempBuffer, "\r\nKp:% .4f Ki:% .4f Kd:% .4f\r\n", Kp, Ki, Kd);
    10bc:	80 91 d4 03 	lds	r24, 0x03D4
    10c0:	8f 93       	push	r24
    10c2:	80 91 d3 03 	lds	r24, 0x03D3
    10c6:	8f 93       	push	r24
    10c8:	80 91 d2 03 	lds	r24, 0x03D2
    10cc:	8f 93       	push	r24
    10ce:	80 91 d1 03 	lds	r24, 0x03D1
    10d2:	8f 93       	push	r24
    10d4:	80 91 d8 03 	lds	r24, 0x03D8
    10d8:	8f 93       	push	r24
    10da:	80 91 d7 03 	lds	r24, 0x03D7
    10de:	8f 93       	push	r24
    10e0:	80 91 d6 03 	lds	r24, 0x03D6
    10e4:	8f 93       	push	r24
    10e6:	80 91 d5 03 	lds	r24, 0x03D5
    10ea:	8f 93       	push	r24
    10ec:	80 91 dc 03 	lds	r24, 0x03DC
    10f0:	8f 93       	push	r24
    10f2:	80 91 db 03 	lds	r24, 0x03DB
    10f6:	8f 93       	push	r24
    10f8:	80 91 da 03 	lds	r24, 0x03DA
    10fc:	8f 93       	push	r24
    10fe:	80 91 d9 03 	lds	r24, 0x03D9
    1102:	8f 93       	push	r24
    1104:	85 e8       	ldi	r24, 0x85	; 133
    1106:	91 e0       	ldi	r25, 0x01	; 1
    1108:	9f 93       	push	r25
    110a:	8f 93       	push	r24
    110c:	8e 01       	movw	r16, r28
    110e:	0f 5f       	subi	r16, 0xFF	; 255
    1110:	1f 4f       	sbci	r17, 0xFF	; 255
    1112:	1f 93       	push	r17
    1114:	0f 93       	push	r16
    1116:	0e 94 09 20 	call	0x4012	; 0x4012 <sprintf>
	print_usb(tempBuffer, length);
    111a:	bc 01       	movw	r22, r24
    111c:	c8 01       	movw	r24, r16
    111e:	95 df       	rcall	.-214    	; 0x104a <print_usb>
    1120:	8c e1       	ldi	r24, 0x1C	; 28

	pre_print_usb("Menu: <char> <float>\r\n");
    1122:	92 e0       	ldi	r25, 0x02	; 2
    1124:	98 df       	rcall	.-208    	; 0x1056 <pre_print_usb>
    1126:	83 e3       	ldi	r24, 0x33	; 51
    1128:	92 e0       	ldi	r25, 0x02	; 2
	pre_print_usb("TYPE {Hh?} for help: ");
    112a:	95 df       	rcall	.-214    	; 0x1056 <pre_print_usb>
    112c:	0f b6       	in	r0, 0x3f	; 63
    112e:	f8 94       	cli
    1130:	de bf       	out	0x3e, r29	; 62
    1132:	0f be       	out	0x3f, r0	; 63
    1134:	cd bf       	out	0x3d, r28	; 61
    1136:	e0 96       	adiw	r28, 0x30	; 48
    1138:	0f b6       	in	r0, 0x3f	; 63
    113a:	f8 94       	cli
}
    113c:	de bf       	out	0x3e, r29	; 62
    113e:	0f be       	out	0x3f, r0	; 63
    1140:	cd bf       	out	0x3d, r28	; 61
    1142:	df 91       	pop	r29
    1144:	cf 91       	pop	r28
    1146:	1f 91       	pop	r17
    1148:	0f 91       	pop	r16
    114a:	08 95       	ret

0000114c <init_menu>:
    114c:	40 e8       	ldi	r20, 0x80	; 128
    114e:	55 e2       	ldi	r21, 0x25	; 37
    1150:	60 e0       	ldi	r22, 0x00	; 0
	
	char printBuffer[48];
	
	// Set the baud rate to 9600 bits per second.  Each byte takes ten bit
	// times, so you can get at most 960 bytes per second at this speed.
	serial_set_baud_rate(USB_COMM, 9600);
    1152:	70 e0       	ldi	r23, 0x00	; 0
    1154:	82 e0       	ldi	r24, 0x02	; 2
    1156:	9c d7       	rcall	.+3896   	; 0x2090 <serial_set_baud_rate>
    1158:	40 e3       	ldi	r20, 0x30	; 48

	// Start receiving bytes in the ring buffer.
	serial_receive_ring(USB_COMM, receive_buffer, sizeof(receive_buffer));
    115a:	68 e0       	ldi	r22, 0x08	; 8
    115c:	74 e0       	ldi	r23, 0x04	; 4
    115e:	82 e0       	ldi	r24, 0x02	; 2
    1160:	81 d6       	rcall	.+3330   	; 0x1e64 <serial_receive_ring>
    1162:	89 e4       	ldi	r24, 0x49	; 73
    1164:	92 e0       	ldi	r25, 0x02	; 2

	//memcpy_P( send_buffer, PSTR("USB Serial Initialized\r\n"), 24 );
	//snprintf( printBuffer, 24, "USB Serial Initialized\r\n");
	//print_usb( printBuffer, 24 );
	pre_print_usb( "\r\n\r\nUSB Serial Initialized");
    1166:	77 df       	rcall	.-274    	; 0x1056 <pre_print_usb>
    1168:	9d cf       	rjmp	.-198    	; 0x10a4 <print_menu>

0000116a <setVBasePIDs>:
    116a:	80 e0       	ldi	r24, 0x00	; 0
    116c:	90 e0       	ldi	r25, 0x00	; 0

	//memcpy_P( send_buffer, MENU, MENU_LENGTH );
	//print_usb( MENU, MENU_LENGTH );
	print_menu();
    116e:	a0 e0       	ldi	r26, 0x00	; 0
    1170:	bf e3       	ldi	r27, 0x3F	; 63
	while(!serial_send_buffer_empty(USB_COMM))
	serial_check();		// USB_COMM port is always in SERIAL_CHECK mode
}

void setVBasePIDs(){
	Kp = .5;
    1172:	80 93 d9 03 	sts	0x03D9, r24
    1176:	90 93 da 03 	sts	0x03DA, r25
    117a:	a0 93 db 03 	sts	0x03DB, r26
    117e:	b0 93 dc 03 	sts	0x03DC, r27
	Ki = 1.5;
    1182:	80 e0       	ldi	r24, 0x00	; 0
    1184:	90 e0       	ldi	r25, 0x00	; 0
    1186:	a0 ec       	ldi	r26, 0xC0	; 192
    1188:	bf e3       	ldi	r27, 0x3F	; 63
    118a:	80 93 d5 03 	sts	0x03D5, r24
    118e:	90 93 d6 03 	sts	0x03D6, r25
    1192:	a0 93 d7 03 	sts	0x03D7, r26
    1196:	b0 93 d8 03 	sts	0x03D8, r27
	Kd = .0001;
    119a:	87 e1       	ldi	r24, 0x17	; 23
    119c:	97 eb       	ldi	r25, 0xB7	; 183
    119e:	a1 ed       	ldi	r26, 0xD1	; 209
    11a0:	b8 e3       	ldi	r27, 0x38	; 56
    11a2:	80 93 d1 03 	sts	0x03D1, r24
    11a6:	90 93 d2 03 	sts	0x03D2, r25
    11aa:	a0 93 d3 03 	sts	0x03D3, r26
    11ae:	b0 93 d4 03 	sts	0x03D4, r27
    11b2:	08 95       	ret

000011b4 <setPBasePIDs>:
}

void setPBasePIDs(){
	Kp = .3;
    11b4:	8a e9       	ldi	r24, 0x9A	; 154
    11b6:	99 e9       	ldi	r25, 0x99	; 153
    11b8:	a9 e9       	ldi	r26, 0x99	; 153
    11ba:	be e3       	ldi	r27, 0x3E	; 62
    11bc:	80 93 d9 03 	sts	0x03D9, r24
    11c0:	90 93 da 03 	sts	0x03DA, r25
    11c4:	a0 93 db 03 	sts	0x03DB, r26
    11c8:	b0 93 dc 03 	sts	0x03DC, r27
	Ki = .5;
    11cc:	80 e0       	ldi	r24, 0x00	; 0
    11ce:	90 e0       	ldi	r25, 0x00	; 0
    11d0:	a0 e0       	ldi	r26, 0x00	; 0
    11d2:	bf e3       	ldi	r27, 0x3F	; 63
    11d4:	80 93 d5 03 	sts	0x03D5, r24
    11d8:	90 93 d6 03 	sts	0x03D6, r25
    11dc:	a0 93 d7 03 	sts	0x03D7, r26
    11e0:	b0 93 d8 03 	sts	0x03D8, r27
	Kd = .1;
    11e4:	8d ec       	ldi	r24, 0xCD	; 205
    11e6:	9c ec       	ldi	r25, 0xCC	; 204
    11e8:	ac ec       	ldi	r26, 0xCC	; 204
    11ea:	bd e3       	ldi	r27, 0x3D	; 61
    11ec:	80 93 d1 03 	sts	0x03D1, r24
    11f0:	90 93 d2 03 	sts	0x03D2, r25
    11f4:	a0 93 d3 03 	sts	0x03D3, r26
    11f8:	b0 93 d4 03 	sts	0x03D4, r27
    11fc:	08 95       	ret

000011fe <setTBasePIDs>:
}

void setTBasePIDs(){
	Kp = .3;
    11fe:	8a e9       	ldi	r24, 0x9A	; 154
    1200:	99 e9       	ldi	r25, 0x99	; 153
    1202:	a9 e9       	ldi	r26, 0x99	; 153
    1204:	be e3       	ldi	r27, 0x3E	; 62
    1206:	80 93 d9 03 	sts	0x03D9, r24
    120a:	90 93 da 03 	sts	0x03DA, r25
    120e:	a0 93 db 03 	sts	0x03DB, r26
    1212:	b0 93 dc 03 	sts	0x03DC, r27
	Ki = .05;
    1216:	8d ec       	ldi	r24, 0xCD	; 205
    1218:	9c ec       	ldi	r25, 0xCC	; 204
    121a:	ac e4       	ldi	r26, 0x4C	; 76
    121c:	bd e3       	ldi	r27, 0x3D	; 61
    121e:	80 93 d5 03 	sts	0x03D5, r24
    1222:	90 93 d6 03 	sts	0x03D6, r25
    1226:	a0 93 d7 03 	sts	0x03D7, r26
    122a:	b0 93 d8 03 	sts	0x03D8, r27
	Kd = .001;
    122e:	8f e6       	ldi	r24, 0x6F	; 111
    1230:	92 e1       	ldi	r25, 0x12	; 18
    1232:	a3 e8       	ldi	r26, 0x83	; 131
    1234:	ba e3       	ldi	r27, 0x3A	; 58
    1236:	80 93 d1 03 	sts	0x03D1, r24
    123a:	90 93 d2 03 	sts	0x03D2, r25
    123e:	a0 93 d3 03 	sts	0x03D3, r26
    1242:	b0 93 d4 03 	sts	0x03D4, r27
    1246:	08 95       	ret

00001248 <resetPIDs>:
}

void resetPIDs(){
	Kp = 0.0;
    1248:	10 92 d9 03 	sts	0x03D9, r1
    124c:	10 92 da 03 	sts	0x03DA, r1
    1250:	10 92 db 03 	sts	0x03DB, r1
    1254:	10 92 dc 03 	sts	0x03DC, r1
	Ki = 0.0;
    1258:	10 92 d5 03 	sts	0x03D5, r1
    125c:	10 92 d6 03 	sts	0x03D6, r1
    1260:	10 92 d7 03 	sts	0x03D7, r1
    1264:	10 92 d8 03 	sts	0x03D8, r1
	Kd = 0.0;
    1268:	10 92 d1 03 	sts	0x03D1, r1
    126c:	10 92 d2 03 	sts	0x03D2, r1
    1270:	10 92 d3 03 	sts	0x03D3, r1
    1274:	10 92 d4 03 	sts	0x03D4, r1
    1278:	08 95       	ret

0000127a <process_received_string>:
//------------------------------------------------------------------------------------------
// process_received_byte: Parses a menu command (series of keystrokes) that
// has been received on USB_COMM and processes it accordingly.
// The menu command is buffered in check_for_new_bytes_received (which calls this function).
void process_received_string(const char* buffer)
{
    127a:	0f 93       	push	r16
    127c:	1f 93       	push	r17
    127e:	cf 93       	push	r28
    1280:	df 93       	push	r29
    1282:	cd b7       	in	r28, 0x3d	; 61
    1284:	de b7       	in	r29, 0x3e	; 62
    1286:	e5 97       	sbiw	r28, 0x35	; 53
    1288:	0f b6       	in	r0, 0x3f	; 63
    128a:	f8 94       	cli
    128c:	de bf       	out	0x3e, r29	; 62
    128e:	0f be       	out	0x3f, r0	; 63
    1290:	cd bf       	out	0x3d, r28	; 61
	// parse and echo back to serial comm window (and optionally the LCD)
	char op_cmd;
	float value;
	int parsed;
	
	parsed = sscanf(buffer, "%c %f", &op_cmd, &value);
    1292:	9e 01       	movw	r18, r28
    1294:	2f 5c       	subi	r18, 0xCF	; 207
    1296:	3f 4f       	sbci	r19, 0xFF	; 255
    1298:	3f 93       	push	r19
    129a:	2f 93       	push	r18
    129c:	2c 5f       	subi	r18, 0xFC	; 252
    129e:	3f 4f       	sbci	r19, 0xFF	; 255
    12a0:	3f 93       	push	r19
    12a2:	2f 93       	push	r18
    12a4:	24 e6       	ldi	r18, 0x64	; 100
    12a6:	32 e0       	ldi	r19, 0x02	; 2
    12a8:	3f 93       	push	r19
    12aa:	2f 93       	push	r18
    12ac:	9f 93       	push	r25
    12ae:	8f 93       	push	r24
    12b0:	0e 94 38 20 	call	0x4070	; 0x4070 <sscanf>
	
	length = sprintf(tempBuffer, "Op:%c V:%d\r\n", op_cmd, value);
    12b4:	8c a9       	ldd	r24, Y+52	; 0x34
    12b6:	8f 93       	push	r24
    12b8:	8b a9       	ldd	r24, Y+51	; 0x33
    12ba:	8f 93       	push	r24
    12bc:	8a a9       	ldd	r24, Y+50	; 0x32
    12be:	8f 93       	push	r24
    12c0:	89 a9       	ldd	r24, Y+49	; 0x31
    12c2:	8f 93       	push	r24
    12c4:	8d a9       	ldd	r24, Y+53	; 0x35
    12c6:	1f 92       	push	r1
    12c8:	8f 93       	push	r24
    12ca:	8a e6       	ldi	r24, 0x6A	; 106
    12cc:	92 e0       	ldi	r25, 0x02	; 2
    12ce:	9f 93       	push	r25
    12d0:	8f 93       	push	r24
    12d2:	8e 01       	movw	r16, r28
    12d4:	0f 5f       	subi	r16, 0xFF	; 255
    12d6:	1f 4f       	sbci	r17, 0xFF	; 255
    12d8:	1f 93       	push	r17
    12da:	0f 93       	push	r16
    12dc:	0e 94 09 20 	call	0x4012	; 0x4012 <sprintf>
	print_usb( tempBuffer, length);
    12e0:	bc 01       	movw	r22, r24
    12e2:	c8 01       	movw	r24, r16
    12e4:	b2 de       	rcall	.-668    	; 0x104a <print_usb>
    12e6:	0f b6       	in	r0, 0x3f	; 63
	
	switch (op_cmd)
    12e8:	f8 94       	cli
    12ea:	de bf       	out	0x3e, r29	; 62
    12ec:	0f be       	out	0x3f, r0	; 63
    12ee:	cd bf       	out	0x3d, r28	; 61
    12f0:	8d a9       	ldd	r24, Y+53	; 0x35
    12f2:	90 e0       	ldi	r25, 0x00	; 0
    12f4:	fc 01       	movw	r30, r24
    12f6:	ff 97       	sbiw	r30, 0x3f	; 63
    12f8:	e8 33       	cpi	r30, 0x38	; 56
    12fa:	f1 05       	cpc	r31, r1
    12fc:	08 f0       	brcs	.+2      	; 0x1300 <process_received_string+0x86>
    12fe:	d6 c0       	rjmp	.+428    	; 0x14ac <process_received_string+0x232>
    1300:	ea 5b       	subi	r30, 0xBA	; 186
    1302:	ff 4f       	sbci	r31, 0xFF	; 255
    1304:	0c 94 b0 1c 	jmp	0x3960	; 0x3960 <__tablejump2__>
    1308:	80 91 f9 03 	lds	r24, 0x03F9
	{
		case 'l':
		case 'L':	//L/l: Start/Stop Logging (print) the values of Pr, Pm, and T
		{
			logger = !logger;
    130c:	91 e0       	ldi	r25, 0x01	; 1
    130e:	89 27       	eor	r24, r25
    1310:	80 93 f9 03 	sts	0x03F9, r24
    1314:	cf c0       	rjmp	.+414    	; 0x14b4 <process_received_string+0x23a>
			break;
    1316:	81 e0       	ldi	r24, 0x01	; 1
		}
		case 'v':
		case 'V':	//V/v: View the current values Kd, Kp, Vm, Pr, Pm, and T
		{
			prntKs = true;
    1318:	80 93 f4 03 	sts	0x03F4, r24
    131c:	cb c0       	rjmp	.+406    	; 0x14b4 <process_received_string+0x23a>
			break;
    131e:	20 e0       	ldi	r18, 0x00	; 0
		}
		case 'r':
		case 'R':	//R/r : Set the reference position (use unit "counts")
		{
			if (Kp == 0)
    1320:	30 e0       	ldi	r19, 0x00	; 0
    1322:	a9 01       	movw	r20, r18
    1324:	60 91 d9 03 	lds	r22, 0x03D9
    1328:	70 91 da 03 	lds	r23, 0x03DA
    132c:	80 91 db 03 	lds	r24, 0x03DB
    1330:	90 91 dc 03 	lds	r25, 0x03DC
    1334:	0e 94 9b 12 	call	0x2536	; 0x2536 <__cmpsf2>
    1338:	81 11       	cpse	r24, r1
    133a:	01 c0       	rjmp	.+2      	; 0x133e <process_received_string+0xc4>
    133c:	3b df       	rcall	.-394    	; 0x11b4 <setPBasePIDs>
			{
				setPBasePIDs();
    133e:	10 92 cf 03 	sts	0x03CF, r1
			}
			velocity = false;
    1342:	81 e0       	ldi	r24, 0x01	; 1
    1344:	80 93 f8 03 	sts	0x03F8, r24
			loggerUSB = true;
    1348:	10 92 ef 03 	sts	0x03EF, r1
			timer1_cnt = 0;
    134c:	10 92 f0 03 	sts	0x03F0, r1
    1350:	10 92 f1 03 	sts	0x03F1, r1
    1354:	10 92 f2 03 	sts	0x03F2, r1
    1358:	89 a9       	ldd	r24, Y+49	; 0x31
    135a:	9a a9       	ldd	r25, Y+50	; 0x32
			Pr = value;
    135c:	ab a9       	ldd	r26, Y+51	; 0x33
    135e:	bc a9       	ldd	r27, Y+52	; 0x34
    1360:	80 93 e9 03 	sts	0x03E9, r24
    1364:	90 93 ea 03 	sts	0x03EA, r25
    1368:	a0 93 eb 03 	sts	0x03EB, r26
    136c:	b0 93 ec 03 	sts	0x03EC, r27
    1370:	a1 c0       	rjmp	.+322    	; 0x14b4 <process_received_string+0x23a>
    1372:	20 e0       	ldi	r18, 0x00	; 0
			break;
    1374:	30 e0       	ldi	r19, 0x00	; 0
		}
		case 's':
		case 'S':	//S/s : Set the reference speed (use unit "counts"/sec)
		{
			if(Kp == 0)
    1376:	a9 01       	movw	r20, r18
    1378:	60 91 d9 03 	lds	r22, 0x03D9
    137c:	70 91 da 03 	lds	r23, 0x03DA
    1380:	80 91 db 03 	lds	r24, 0x03DB
    1384:	90 91 dc 03 	lds	r25, 0x03DC
    1388:	0e 94 9b 12 	call	0x2536	; 0x2536 <__cmpsf2>
    138c:	81 11       	cpse	r24, r1
    138e:	01 c0       	rjmp	.+2      	; 0x1392 <process_received_string+0x118>
    1390:	ec de       	rcall	.-552    	; 0x116a <setVBasePIDs>
    1392:	81 e0       	ldi	r24, 0x01	; 1
			{
				setVBasePIDs();
    1394:	80 93 cf 03 	sts	0x03CF, r24
			}
			velocity = true;
    1398:	80 93 f8 03 	sts	0x03F8, r24
    139c:	10 92 ef 03 	sts	0x03EF, r1
			loggerUSB = true;
    13a0:	10 92 f0 03 	sts	0x03F0, r1
			timer1_cnt = 0;
    13a4:	10 92 f1 03 	sts	0x03F1, r1
    13a8:	10 92 f2 03 	sts	0x03F2, r1
    13ac:	89 a9       	ldd	r24, Y+49	; 0x31
    13ae:	9a a9       	ldd	r25, Y+50	; 0x32
    13b0:	ab a9       	ldd	r26, Y+51	; 0x33
			Vr = value;
    13b2:	bc a9       	ldd	r27, Y+52	; 0x34
    13b4:	80 93 e1 03 	sts	0x03E1, r24
    13b8:	90 93 e2 03 	sts	0x03E2, r25
    13bc:	a0 93 e3 03 	sts	0x03E3, r26
    13c0:	b0 93 e4 03 	sts	0x03E4, r27
    13c4:	77 c0       	rjmp	.+238    	; 0x14b4 <process_received_string+0x23a>
    13c6:	89 a9       	ldd	r24, Y+49	; 0x31
    13c8:	9a a9       	ldd	r25, Y+50	; 0x32
			break;
    13ca:	ab a9       	ldd	r26, Y+51	; 0x33
		}
		case 'P':
		case 'p':	//p: Decrease Kp by an amount of your choice
		{
			Kp = value;
    13cc:	bc a9       	ldd	r27, Y+52	; 0x34
    13ce:	80 93 d9 03 	sts	0x03D9, r24
    13d2:	90 93 da 03 	sts	0x03DA, r25
    13d6:	a0 93 db 03 	sts	0x03DB, r26
    13da:	b0 93 dc 03 	sts	0x03DC, r27
    13de:	6a c0       	rjmp	.+212    	; 0x14b4 <process_received_string+0x23a>
    13e0:	89 a9       	ldd	r24, Y+49	; 0x31
    13e2:	9a a9       	ldd	r25, Y+50	; 0x32
			break;
    13e4:	ab a9       	ldd	r26, Y+51	; 0x33
		}
		case 'i':
		case 'I':	//P: Increase Kp by an amount of your choice*
		{
			Ki = value;
    13e6:	bc a9       	ldd	r27, Y+52	; 0x34
    13e8:	80 93 d5 03 	sts	0x03D5, r24
    13ec:	90 93 d6 03 	sts	0x03D6, r25
    13f0:	a0 93 d7 03 	sts	0x03D7, r26
    13f4:	b0 93 d8 03 	sts	0x03D8, r27
    13f8:	5d c0       	rjmp	.+186    	; 0x14b4 <process_received_string+0x23a>
    13fa:	89 a9       	ldd	r24, Y+49	; 0x31
    13fc:	9a a9       	ldd	r25, Y+50	; 0x32
			break;
    13fe:	ab a9       	ldd	r26, Y+51	; 0x33
		}
		case 'd':	//D: Increase Kd by an amount of your choice
		case 'D':	//d: Decrease Kd by an amount of your choice
		{
			Kd = value;
    1400:	bc a9       	ldd	r27, Y+52	; 0x34
    1402:	80 93 d1 03 	sts	0x03D1, r24
    1406:	90 93 d2 03 	sts	0x03D2, r25
    140a:	a0 93 d3 03 	sts	0x03D3, r26
    140e:	b0 93 d4 03 	sts	0x03D4, r27
    1412:	50 c0       	rjmp	.+160    	; 0x14b4 <process_received_string+0x23a>
    1414:	91 e0       	ldi	r25, 0x01	; 1
    1416:	90 93 fa 03 	sts	0x03FA, r25
			break;
		}
		case 'b':
		case 'B':
		{
			clearLCD = true;
    141a:	80 91 f5 03 	lds	r24, 0x03F5
    141e:	89 27       	eor	r24, r25
			toggleLCD = !toggleLCD;
    1420:	80 93 f5 03 	sts	0x03F5, r24
    1424:	47 c0       	rjmp	.+142    	; 0x14b4 <process_received_string+0x23a>
    1426:	7a db       	rcall	.-2316   	; 0xb1c <test_engine>
    1428:	45 c0       	rjmp	.+138    	; 0x14b4 <process_received_string+0x23a>
			break;
    142a:	20 e0       	ldi	r18, 0x00	; 0
		}
		case 'c':
		case 'C':
		{
			test_engine();
    142c:	30 e0       	ldi	r19, 0x00	; 0
    142e:	a9 01       	movw	r20, r18
			break;
    1430:	60 91 d9 03 	lds	r22, 0x03D9
		}
		case 't':
		case 'T':	//t: Execute trajectory
		{
			if (Kp == 0)
    1434:	70 91 da 03 	lds	r23, 0x03DA
    1438:	80 91 db 03 	lds	r24, 0x03DB
    143c:	90 91 dc 03 	lds	r25, 0x03DC
    1440:	0e 94 9b 12 	call	0x2536	; 0x2536 <__cmpsf2>
    1444:	81 11       	cpse	r24, r1
    1446:	01 c0       	rjmp	.+2      	; 0x144a <process_received_string+0x1d0>
    1448:	da de       	rcall	.-588    	; 0x11fe <setTBasePIDs>
    144a:	81 e0       	ldi	r24, 0x01	; 1
    144c:	80 93 d0 03 	sts	0x03D0, r24
			{
				setTBasePIDs();
    1450:	10 92 cf 03 	sts	0x03CF, r1
			}
			execTragectory = true;
    1454:	10 92 ef 03 	sts	0x03EF, r1
    1458:	10 92 f0 03 	sts	0x03F0, r1
			velocity = false;
    145c:	10 92 f1 03 	sts	0x03F1, r1
			timer1_cnt = 0;
    1460:	10 92 f2 03 	sts	0x03F2, r1
    1464:	27 c0       	rjmp	.+78     	; 0x14b4 <process_received_string+0x23a>
    1466:	0e 94 65 01 	call	0x2ca	; 0x2ca <set_motor_speed>
    146a:	ee de       	rcall	.-548    	; 0x1248 <resetPIDs>
    146c:	23 c0       	rjmp	.+70     	; 0x14b4 <process_received_string+0x23a>
			break;
    146e:	87 e7       	ldi	r24, 0x77	; 119
		}
		case 'k':
		case 'K':
		{
			set_motor_speed();
    1470:	92 e0       	ldi	r25, 0x02	; 2
    1472:	f1 dd       	rcall	.-1054   	; 0x1056 <pre_print_usb>
			resetPIDs();
    1474:	84 e9       	ldi	r24, 0x94	; 148
    1476:	92 e0       	ldi	r25, 0x02	; 2
			break;
    1478:	ee dd       	rcall	.-1060   	; 0x1056 <pre_print_usb>
		}
		case 'h':
		case 'H':
		case '?':
		{
			pre_print_usb("L/l:Toggle logging Pr,Pm,T\r\n");
    147a:	80 eb       	ldi	r24, 0xB0	; 176
    147c:	92 e0       	ldi	r25, 0x02	; 2
    147e:	eb dd       	rcall	.-1066   	; 0x1056 <pre_print_usb>
    1480:	83 ed       	ldi	r24, 0xD3	; 211
			pre_print_usb("V/v:View Kd,Kp,Vm,Pr,Pm,T\r\n");
    1482:	92 e0       	ldi	r25, 0x02	; 2
    1484:	e8 dd       	rcall	.-1072   	; 0x1056 <pre_print_usb>
    1486:	84 ef       	ldi	r24, 0xF4	; 244
    1488:	92 e0       	ldi	r25, 0x02	; 2
			pre_print_usb("R/r:Set ref pos (use unit count)\r\n");
    148a:	e5 dd       	rcall	.-1078   	; 0x1056 <pre_print_usb>
    148c:	8c e0       	ldi	r24, 0x0C	; 12
    148e:	93 e0       	ldi	r25, 0x03	; 3
    1490:	e2 dd       	rcall	.-1084   	; 0x1056 <pre_print_usb>
			pre_print_usb("S/s:Set ref speed (counts/sec)\r\n");
    1492:	84 e2       	ldi	r24, 0x24	; 36
    1494:	93 e0       	ldi	r25, 0x03	; 3
    1496:	df dd       	rcall	.-1090   	; 0x1056 <pre_print_usb>
    1498:	8c e3       	ldi	r24, 0x3C	; 60
			pre_print_usb("P/p:Set Kp - 10 -> .1\r\n");
    149a:	93 e0       	ldi	r25, 0x03	; 3
    149c:	dc dd       	rcall	.-1096   	; 0x1056 <pre_print_usb>
    149e:	8d e4       	ldi	r24, 0x4D	; 77
    14a0:	93 e0       	ldi	r25, 0x03	; 3
			pre_print_usb("D/d:Set Kd - 10 -> .1\r\n");
    14a2:	d9 dd       	rcall	.-1102   	; 0x1056 <pre_print_usb>
    14a4:	8a e6       	ldi	r24, 0x6A	; 106
    14a6:	93 e0       	ldi	r25, 0x03	; 3
    14a8:	d6 dd       	rcall	.-1108   	; 0x1056 <pre_print_usb>
			pre_print_usb("I/i:Set Ki - 10 -> .1\r\n");
    14aa:	04 c0       	rjmp	.+8      	; 0x14b4 <process_received_string+0x23a>
    14ac:	81 e8       	ldi	r24, 0x81	; 129
    14ae:	93 e0       	ldi	r25, 0x03	; 3
    14b0:	d2 dd       	rcall	.-1116   	; 0x1056 <pre_print_usb>
			pre_print_usb("B/b:Toggle LCD\r\n");
    14b2:	05 c0       	rjmp	.+10     	; 0x14be <process_received_string+0x244>
    14b4:	80 91 f4 03 	lds	r24, 0x03F4
    14b8:	81 11       	cpse	r24, r1
			pre_print_usb("C/c:Run test func. For dbg\r\n");
    14ba:	01 c0       	rjmp	.+2      	; 0x14be <process_received_string+0x244>
    14bc:	f3 dd       	rcall	.-1050   	; 0x10a4 <print_menu>
    14be:	e5 96       	adiw	r28, 0x35	; 53
    14c0:	0f b6       	in	r0, 0x3f	; 63
			pre_print_usb("t:Execute trajectory\r\n");
    14c2:	f8 94       	cli
    14c4:	de bf       	out	0x3e, r29	; 62
    14c6:	0f be       	out	0x3f, r0	; 63
    14c8:	cd bf       	out	0x3d, r28	; 61
			break;
    14ca:	df 91       	pop	r29
		}
		default:
		{
			pre_print_usb( "Cmd unkn. Try {?}\r\n" );
    14cc:	cf 91       	pop	r28
    14ce:	1f 91       	pop	r17
    14d0:	0f 91       	pop	r16
    14d2:	08 95       	ret

000014d4 <check_for_new_bytes_received>:
    14d4:	cf 93       	push	r28
			return;
		}
	}
	if(!prntKs)
    14d6:	df 93       	push	r29
    14d8:	cd b7       	in	r28, 0x3d	; 61
    14da:	de b7       	in	r29, 0x3e	; 62
    14dc:	a0 97       	sbiw	r28, 0x20	; 32
	{
		print_menu();
    14de:	0f b6       	in	r0, 0x3f	; 63
    14e0:	f8 94       	cli
	}

} //end menu()
    14e2:	de bf       	out	0x3e, r29	; 62
    14e4:	0f be       	out	0x3f, r0	; 63
    14e6:	cd bf       	out	0x3d, r28	; 61
    14e8:	82 e0       	ldi	r24, 0x02	; 2
    14ea:	b8 d2       	rcall	.+1392   	; 0x1a5c <serial_get_received_bytes>
    14ec:	90 91 38 04 	lds	r25, 0x0438
    14f0:	20 91 06 04 	lds	r18, 0x0406
    14f4:	30 91 07 04 	lds	r19, 0x0407
	char menuBuffer[32];
	static int received = 0;
	
	// while there are unprocessed keystrokes in the receive_buffer, grab them and buffer
	// them into the menuBuffer
	while(serial_get_received_bytes(USB_COMM) != receive_buffer_position)
    14f8:	89 17       	cp	r24, r25
    14fa:	d9 f0       	breq	.+54     	; 0x1532 <check_for_new_bytes_received+0x5e>
    14fc:	a1 e0       	ldi	r26, 0x01	; 1
	{
		// place in a buffer for processing
		menuBuffer[received] = receive_buffer[receive_buffer_position];
    14fe:	b0 e0       	ldi	r27, 0x00	; 0
    1500:	ac 0f       	add	r26, r28
    1502:	bd 1f       	adc	r27, r29
    1504:	a2 0f       	add	r26, r18
    1506:	b3 1f       	adc	r27, r19
    1508:	e9 2f       	mov	r30, r25
    150a:	f0 e0       	ldi	r31, 0x00	; 0
    150c:	e8 5f       	subi	r30, 0xF8	; 248
    150e:	fb 4f       	sbci	r31, 0xFB	; 251
    1510:	80 81       	ld	r24, Z
    1512:	8c 93       	st	X, r24
    1514:	2f 5f       	subi	r18, 0xFF	; 255
		++received;
    1516:	3f 4f       	sbci	r19, 0xFF	; 255
    1518:	30 93 07 04 	sts	0x0407, r19
    151c:	20 93 06 04 	sts	0x0406, r18
    1520:	9f 32       	cpi	r25, 0x2F	; 47
		
		// Increment receive_buffer_position, but wrap around when it gets to
		// the end of the buffer.
		if ( receive_buffer_position == sizeof(receive_buffer) - 1 )
    1522:	19 f4       	brne	.+6      	; 0x152a <check_for_new_bytes_received+0x56>
    1524:	10 92 38 04 	sts	0x0438, r1
		{
			receive_buffer_position = 0;
    1528:	df cf       	rjmp	.-66     	; 0x14e8 <check_for_new_bytes_received+0x14>
    152a:	9f 5f       	subi	r25, 0xFF	; 255
		}
		else
		{
			receive_buffer_position++;
    152c:	90 93 38 04 	sts	0x0438, r25
    1530:	db cf       	rjmp	.-74     	; 0x14e8 <check_for_new_bytes_received+0x14>
    1532:	21 15       	cp	r18, r1
		}
	}
	//if there were keystrokes processed, check if a menu command
	if (received)
    1534:	31 05       	cpc	r19, r1
    1536:	b1 f0       	breq	.+44     	; 0x1564 <check_for_new_bytes_received+0x90>
    1538:	21 30       	cpi	r18, 0x01	; 1
	{
		if (1 == received && (menuBuffer[0] == '\n' || menuBuffer[0] == '\r'))
    153a:	31 05       	cpc	r19, r1
    153c:	29 f4       	brne	.+10     	; 0x1548 <check_for_new_bytes_received+0x74>
    153e:	89 81       	ldd	r24, Y+1	; 0x01
    1540:	8a 30       	cpi	r24, 0x0A	; 10
    1542:	61 f0       	breq	.+24     	; 0x155c <check_for_new_bytes_received+0x88>
    1544:	8d 30       	cpi	r24, 0x0D	; 13
    1546:	51 f0       	breq	.+20     	; 0x155c <check_for_new_bytes_received+0x88>
    1548:	e1 e0       	ldi	r30, 0x01	; 1
		{
			received = 0;
			return;
		}
		// Process buffer: terminate string, process, rest index to beginning of array to receive another command
		menuBuffer[received] = '\0';
    154a:	f0 e0       	ldi	r31, 0x00	; 0
    154c:	ec 0f       	add	r30, r28
    154e:	fd 1f       	adc	r31, r29
    1550:	e2 0f       	add	r30, r18
    1552:	f3 1f       	adc	r31, r19
    1554:	10 82       	st	Z, r1
    1556:	ce 01       	movw	r24, r28
		process_received_string(menuBuffer);
    1558:	01 96       	adiw	r24, 0x01	; 1
    155a:	8f de       	rcall	.-738    	; 0x127a <process_received_string>
    155c:	10 92 07 04 	sts	0x0407, r1
		received = 0;
    1560:	10 92 06 04 	sts	0x0406, r1
    1564:	a0 96       	adiw	r28, 0x20	; 32
    1566:	0f b6       	in	r0, 0x3f	; 63
	}
}
    1568:	f8 94       	cli
    156a:	de bf       	out	0x3e, r29	; 62
    156c:	0f be       	out	0x3f, r0	; 63
    156e:	cd bf       	out	0x3d, r28	; 61
    1570:	df 91       	pop	r29
    1572:	cf 91       	pop	r28
    1574:	08 95       	ret

00001576 <void_getchar>:
    1576:	80 e0       	ldi	r24, 0x00	; 0
    1578:	90 e0       	ldi	r25, 0x00	; 0
    157a:	08 95       	ret

0000157c <delayMicroseconds.clone.0>:
    157c:	81 e0       	ldi	r24, 0x01	; 1
    157e:	90 e0       	ldi	r25, 0x00	; 0
    1580:	6f 93       	push	r22
    1582:	64 e0       	ldi	r22, 0x04	; 4
    1584:	6a 95       	dec	r22
    1586:	f1 f7       	brne	.-4      	; 0x1584 <delayMicroseconds.clone.0+0x8>
    1588:	6f 91       	pop	r22
    158a:	01 97       	sbiw	r24, 0x01	; 1
    158c:	c9 f7       	brne	.-14     	; 0x1580 <delayMicroseconds.clone.0+0x4>
    158e:	08 95       	ret

00001590 <_ZN12OrangutanLCD8busyWaitEv>:
    1590:	0f 93       	push	r16
    1592:	1f 93       	push	r17
    1594:	cf 93       	push	r28
    1596:	df 93       	push	r29
    1598:	17 b1       	in	r17, 0x07	; 7
    159a:	3d 98       	cbi	0x07, 5	; 7
    159c:	28 98       	cbi	0x05, 0	; 5
    159e:	29 9a       	sbi	0x05, 1	; 5
    15a0:	c0 e0       	ldi	r28, 0x00	; 0
    15a2:	d0 e0       	ldi	r29, 0x00	; 0
    15a4:	eb df       	rcall	.-42     	; 0x157c <delayMicroseconds.clone.0>
    15a6:	2a 9a       	sbi	0x05, 2	; 5
    15a8:	e9 df       	rcall	.-46     	; 0x157c <delayMicroseconds.clone.0>
    15aa:	06 b1       	in	r16, 0x06	; 6
    15ac:	2a 98       	cbi	0x05, 2	; 5
    15ae:	e6 df       	rcall	.-52     	; 0x157c <delayMicroseconds.clone.0>
    15b0:	2a 9a       	sbi	0x05, 2	; 5
    15b2:	e4 df       	rcall	.-56     	; 0x157c <delayMicroseconds.clone.0>
    15b4:	2a 98       	cbi	0x05, 2	; 5
    15b6:	24 96       	adiw	r28, 0x04	; 4
    15b8:	05 ff       	sbrs	r16, 5
    15ba:	10 c0       	rjmp	.+32     	; 0x15dc <_ZN12OrangutanLCD8busyWaitEv+0x4c>
    15bc:	9e 01       	movw	r18, r28
    15be:	40 e0       	ldi	r20, 0x00	; 0
    15c0:	50 e0       	ldi	r21, 0x00	; 0
    15c2:	80 91 9a 03 	lds	r24, 0x039A
    15c6:	90 91 9b 03 	lds	r25, 0x039B
    15ca:	a0 91 9c 03 	lds	r26, 0x039C
    15ce:	b0 91 9d 03 	lds	r27, 0x039D
    15d2:	28 17       	cp	r18, r24
    15d4:	39 07       	cpc	r19, r25
    15d6:	4a 07       	cpc	r20, r26
    15d8:	5b 07       	cpc	r21, r27
    15da:	20 f3       	brcs	.-56     	; 0x15a4 <_ZN12OrangutanLCD8busyWaitEv+0x14>
    15dc:	9e 01       	movw	r18, r28
    15de:	40 e0       	ldi	r20, 0x00	; 0
    15e0:	50 e0       	ldi	r21, 0x00	; 0
    15e2:	80 91 9a 03 	lds	r24, 0x039A
    15e6:	90 91 9b 03 	lds	r25, 0x039B
    15ea:	a0 91 9c 03 	lds	r26, 0x039C
    15ee:	b0 91 9d 03 	lds	r27, 0x039D
    15f2:	28 17       	cp	r18, r24
    15f4:	39 07       	cpc	r19, r25
    15f6:	4a 07       	cpc	r20, r26
    15f8:	5b 07       	cpc	r21, r27
    15fa:	28 f0       	brcs	.+10     	; 0x1606 <_ZN12OrangutanLCD8busyWaitEv+0x76>
    15fc:	82 e3       	ldi	r24, 0x32	; 50
    15fe:	90 e0       	ldi	r25, 0x00	; 0
    1600:	a0 e0       	ldi	r26, 0x00	; 0
    1602:	b0 e0       	ldi	r27, 0x00	; 0
    1604:	04 c0       	rjmp	.+8      	; 0x160e <_ZN12OrangutanLCD8busyWaitEv+0x7e>
    1606:	80 e3       	ldi	r24, 0x30	; 48
    1608:	95 e7       	ldi	r25, 0x75	; 117
    160a:	a0 e0       	ldi	r26, 0x00	; 0
    160c:	b0 e0       	ldi	r27, 0x00	; 0
    160e:	80 93 9a 03 	sts	0x039A, r24
    1612:	90 93 9b 03 	sts	0x039B, r25
    1616:	a0 93 9c 03 	sts	0x039C, r26
    161a:	b0 93 9d 03 	sts	0x039D, r27
    161e:	17 b9       	out	0x07, r17	; 7
    1620:	df 91       	pop	r29
    1622:	cf 91       	pop	r28
    1624:	1f 91       	pop	r17
    1626:	0f 91       	pop	r16
    1628:	08 95       	ret

0000162a <_ZN12OrangutanLCD8sendDataEh>:
    162a:	28 b1       	in	r18, 0x08	; 8
    162c:	90 e0       	ldi	r25, 0x00	; 0
    162e:	8f 70       	andi	r24, 0x0F	; 15
    1630:	90 70       	andi	r25, 0x00	; 0
    1632:	88 0f       	add	r24, r24
    1634:	99 1f       	adc	r25, r25
    1636:	88 0f       	add	r24, r24
    1638:	99 1f       	adc	r25, r25
    163a:	23 7c       	andi	r18, 0xC3	; 195
    163c:	28 2b       	or	r18, r24
    163e:	28 b9       	out	0x08, r18	; 8
    1640:	2a 9a       	sbi	0x05, 2	; 5
    1642:	9c df       	rcall	.-200    	; 0x157c <delayMicroseconds.clone.0>
    1644:	2a 98       	cbi	0x05, 2	; 5
    1646:	9a cf       	rjmp	.-204    	; 0x157c <delayMicroseconds.clone.0>

00001648 <_ZN12OrangutanLCD4sendEhhh>:
    1648:	a2 e0       	ldi	r26, 0x02	; 2
    164a:	b0 e0       	ldi	r27, 0x00	; 0
    164c:	ea e2       	ldi	r30, 0x2A	; 42
    164e:	fb e0       	ldi	r31, 0x0B	; 11
    1650:	0c 94 cd 1c 	jmp	0x399a	; 0x399a <__prologue_saves__+0x1a>
    1654:	18 2f       	mov	r17, r24
    1656:	4a 83       	std	Y+2, r20	; 0x02
    1658:	69 83       	std	Y+1, r22	; 0x01
    165a:	58 d0       	rcall	.+176    	; 0x170c <_ZN12OrangutanLCD4initEv>
    165c:	99 df       	rcall	.-206    	; 0x1590 <_ZN12OrangutanLCD8busyWaitEv>
    165e:	f7 b0       	in	r15, 0x07	; 7
    1660:	08 b1       	in	r16, 0x08	; 8
    1662:	29 98       	cbi	0x05, 1	; 5
    1664:	69 81       	ldd	r22, Y+1	; 0x01
    1666:	4a 81       	ldd	r20, Y+2	; 0x02
    1668:	66 23       	and	r22, r22
    166a:	11 f0       	breq	.+4      	; 0x1670 <_ZN12OrangutanLCD4sendEhhh+0x28>
    166c:	28 9a       	sbi	0x05, 0	; 5
    166e:	01 c0       	rjmp	.+2      	; 0x1672 <_ZN12OrangutanLCD4sendEhhh+0x2a>
    1670:	28 98       	cbi	0x05, 0	; 5
    1672:	87 b1       	in	r24, 0x07	; 7
    1674:	8c 63       	ori	r24, 0x3C	; 60
    1676:	87 b9       	out	0x07, r24	; 7
    1678:	41 30       	cpi	r20, 0x01	; 1
    167a:	21 f0       	breq	.+8      	; 0x1684 <_ZN12OrangutanLCD4sendEhhh+0x3c>
    167c:	81 2f       	mov	r24, r17
    167e:	82 95       	swap	r24
    1680:	8f 70       	andi	r24, 0x0F	; 15
    1682:	d3 df       	rcall	.-90     	; 0x162a <_ZN12OrangutanLCD8sendDataEh>
    1684:	81 2f       	mov	r24, r17
    1686:	8f 70       	andi	r24, 0x0F	; 15
    1688:	d0 df       	rcall	.-96     	; 0x162a <_ZN12OrangutanLCD8sendDataEh>
    168a:	f7 b8       	out	0x07, r15	; 7
    168c:	08 b9       	out	0x08, r16	; 8
    168e:	22 96       	adiw	r28, 0x02	; 2
    1690:	e5 e0       	ldi	r30, 0x05	; 5
    1692:	0c 94 e9 1c 	jmp	0x39d2	; 0x39d2 <__epilogue_restores__+0x1a>

00001696 <_ZN12OrangutanLCD8send_cmdEh>:
    1696:	60 e0       	ldi	r22, 0x00	; 0
    1698:	42 e0       	ldi	r20, 0x02	; 2
    169a:	d6 cf       	rjmp	.-84     	; 0x1648 <_ZN12OrangutanLCD4sendEhhh>

0000169c <_ZN12OrangutanLCD9send_dataEh>:
    169c:	61 e0       	ldi	r22, 0x01	; 1
    169e:	42 e0       	ldi	r20, 0x02	; 2
    16a0:	d3 cf       	rjmp	.-90     	; 0x1648 <_ZN12OrangutanLCD4sendEhhh>

000016a2 <_ZN12OrangutanLCD13send_4bit_cmdEh>:
    16a2:	60 e0       	ldi	r22, 0x00	; 0
    16a4:	41 e0       	ldi	r20, 0x01	; 1
    16a6:	d0 cf       	rjmp	.-96     	; 0x1648 <_ZN12OrangutanLCD4sendEhhh>

000016a8 <_ZN12OrangutanLCD5init2Ev>:
    16a8:	3d 98       	cbi	0x07, 5	; 7
    16aa:	45 9a       	sbi	0x08, 5	; 8
    16ac:	80 e3       	ldi	r24, 0x30	; 48
    16ae:	95 e7       	ldi	r25, 0x75	; 117
    16b0:	a0 e0       	ldi	r26, 0x00	; 0
    16b2:	b0 e0       	ldi	r27, 0x00	; 0
    16b4:	80 93 9a 03 	sts	0x039A, r24
    16b8:	90 93 9b 03 	sts	0x039B, r25
    16bc:	a0 93 9c 03 	sts	0x039C, r26
    16c0:	b0 93 9d 03 	sts	0x039D, r27
    16c4:	20 9a       	sbi	0x04, 0	; 4
    16c6:	21 9a       	sbi	0x04, 1	; 4
    16c8:	22 9a       	sbi	0x04, 2	; 4
    16ca:	8e e1       	ldi	r24, 0x1E	; 30
    16cc:	90 e0       	ldi	r25, 0x00	; 0
    16ce:	63 d6       	rcall	.+3270   	; 0x2396 <delay_ms>
    16d0:	83 e0       	ldi	r24, 0x03	; 3
    16d2:	e7 df       	rcall	.-50     	; 0x16a2 <_ZN12OrangutanLCD13send_4bit_cmdEh>
    16d4:	86 e0       	ldi	r24, 0x06	; 6
    16d6:	90 e0       	ldi	r25, 0x00	; 0
    16d8:	5e d6       	rcall	.+3260   	; 0x2396 <delay_ms>
    16da:	83 e0       	ldi	r24, 0x03	; 3
    16dc:	e2 df       	rcall	.-60     	; 0x16a2 <_ZN12OrangutanLCD13send_4bit_cmdEh>
    16de:	82 e0       	ldi	r24, 0x02	; 2
    16e0:	90 e0       	ldi	r25, 0x00	; 0
    16e2:	59 d6       	rcall	.+3250   	; 0x2396 <delay_ms>
    16e4:	83 e0       	ldi	r24, 0x03	; 3
    16e6:	dd df       	rcall	.-70     	; 0x16a2 <_ZN12OrangutanLCD13send_4bit_cmdEh>
    16e8:	82 e0       	ldi	r24, 0x02	; 2
    16ea:	90 e0       	ldi	r25, 0x00	; 0
    16ec:	54 d6       	rcall	.+3240   	; 0x2396 <delay_ms>
    16ee:	82 e0       	ldi	r24, 0x02	; 2
    16f0:	d8 df       	rcall	.-80     	; 0x16a2 <_ZN12OrangutanLCD13send_4bit_cmdEh>
    16f2:	82 e0       	ldi	r24, 0x02	; 2
    16f4:	90 e0       	ldi	r25, 0x00	; 0
    16f6:	4f d6       	rcall	.+3230   	; 0x2396 <delay_ms>
    16f8:	88 e2       	ldi	r24, 0x28	; 40
    16fa:	cd df       	rcall	.-102    	; 0x1696 <_ZN12OrangutanLCD8send_cmdEh>
    16fc:	88 e0       	ldi	r24, 0x08	; 8
    16fe:	cb df       	rcall	.-106    	; 0x1696 <_ZN12OrangutanLCD8send_cmdEh>
    1700:	81 e0       	ldi	r24, 0x01	; 1
    1702:	c9 df       	rcall	.-110    	; 0x1696 <_ZN12OrangutanLCD8send_cmdEh>
    1704:	86 e0       	ldi	r24, 0x06	; 6
    1706:	c7 df       	rcall	.-114    	; 0x1696 <_ZN12OrangutanLCD8send_cmdEh>
    1708:	8c e0       	ldi	r24, 0x0C	; 12
    170a:	c5 cf       	rjmp	.-118    	; 0x1696 <_ZN12OrangutanLCD8send_cmdEh>

0000170c <_ZN12OrangutanLCD4initEv>:
    170c:	80 91 9e 03 	lds	r24, 0x039E
    1710:	88 23       	and	r24, r24
    1712:	21 f4       	brne	.+8      	; 0x171c <_ZN12OrangutanLCD4initEv+0x10>
    1714:	81 e0       	ldi	r24, 0x01	; 1
    1716:	80 93 9e 03 	sts	0x039E, r24
    171a:	c6 cf       	rjmp	.-116    	; 0x16a8 <_ZN12OrangutanLCD5init2Ev>
    171c:	08 95       	ret

0000171e <_ZN12OrangutanLCD5clearEv>:
    171e:	81 e0       	ldi	r24, 0x01	; 1
    1720:	ba df       	rcall	.-140    	; 0x1696 <_ZN12OrangutanLCD8send_cmdEh>
    1722:	80 91 96 03 	lds	r24, 0x0396
    1726:	90 91 97 03 	lds	r25, 0x0397
    172a:	00 97       	sbiw	r24, 0x00	; 0
    172c:	11 f1       	breq	.+68     	; 0x1772 <_ZN12OrangutanLCD5clearEv+0x54>
    172e:	a0 e0       	ldi	r26, 0x00	; 0
    1730:	b0 e2       	ldi	r27, 0x20	; 32
    1732:	08 c0       	rjmp	.+16     	; 0x1744 <_ZN12OrangutanLCD5clearEv+0x26>
    1734:	e0 91 96 03 	lds	r30, 0x0396
    1738:	f0 91 97 03 	lds	r31, 0x0397
    173c:	e2 0f       	add	r30, r18
    173e:	f3 1f       	adc	r31, r19
    1740:	b0 83       	st	Z, r27
    1742:	af 5f       	subi	r26, 0xFF	; 255
    1744:	2a 2f       	mov	r18, r26
    1746:	30 e0       	ldi	r19, 0x00	; 0
    1748:	80 91 00 01 	lds	r24, 0x0100
    174c:	90 e0       	ldi	r25, 0x00	; 0
    174e:	01 97       	sbiw	r24, 0x01	; 1
    1750:	60 91 01 01 	lds	r22, 0x0101
    1754:	70 e0       	ldi	r23, 0x00	; 0
    1756:	86 9f       	mul	r24, r22
    1758:	a0 01       	movw	r20, r0
    175a:	87 9f       	mul	r24, r23
    175c:	50 0d       	add	r21, r0
    175e:	96 9f       	mul	r25, r22
    1760:	50 0d       	add	r21, r0
    1762:	11 24       	eor	r1, r1
    1764:	24 17       	cp	r18, r20
    1766:	35 07       	cpc	r19, r21
    1768:	2c f3       	brlt	.-54     	; 0x1734 <_ZN12OrangutanLCD5clearEv+0x16>
    176a:	10 92 99 03 	sts	0x0399, r1
    176e:	10 92 98 03 	sts	0x0398, r1
    1772:	08 95       	ret

00001774 <clear>:
    1774:	d4 cf       	rjmp	.-88     	; 0x171e <_ZN12OrangutanLCD5clearEv>
    1776:	08 95       	ret

00001778 <_ZN12OrangutanLCD6gotoXYEhh>:
    1778:	a5 e0       	ldi	r26, 0x05	; 5
    177a:	b0 e0       	ldi	r27, 0x00	; 0
    177c:	e2 ec       	ldi	r30, 0xC2	; 194
    177e:	fb e0       	ldi	r31, 0x0B	; 11
    1780:	0c 94 cf 1c 	jmp	0x399e	; 0x399e <__prologue_saves__+0x1e>
    1784:	18 2f       	mov	r17, r24
    1786:	80 e8       	ldi	r24, 0x80	; 128
    1788:	89 83       	std	Y+1, r24	; 0x01
    178a:	80 ec       	ldi	r24, 0xC0	; 192
    178c:	8a 83       	std	Y+2, r24	; 0x02
    178e:	84 e9       	ldi	r24, 0x94	; 148
    1790:	8b 83       	std	Y+3, r24	; 0x03
    1792:	84 ed       	ldi	r24, 0xD4	; 212
    1794:	8c 83       	std	Y+4, r24	; 0x04
    1796:	fe 01       	movw	r30, r28
    1798:	e6 0f       	add	r30, r22
    179a:	f1 1d       	adc	r31, r1
    179c:	81 81       	ldd	r24, Z+1	; 0x01
    179e:	81 0f       	add	r24, r17
    17a0:	6d 83       	std	Y+5, r22	; 0x05
    17a2:	79 df       	rcall	.-270    	; 0x1696 <_ZN12OrangutanLCD8send_cmdEh>
    17a4:	10 93 99 03 	sts	0x0399, r17
    17a8:	6d 81       	ldd	r22, Y+5	; 0x05
    17aa:	60 93 98 03 	sts	0x0398, r22
    17ae:	25 96       	adiw	r28, 0x05	; 5
    17b0:	e3 e0       	ldi	r30, 0x03	; 3
    17b2:	0c 94 eb 1c 	jmp	0x39d6	; 0x39d6 <__epilogue_restores__+0x1e>

000017b6 <lcd_goto_xy>:
    17b6:	e0 cf       	rjmp	.-64     	; 0x1778 <_ZN12OrangutanLCD6gotoXYEhh>
    17b8:	08 95       	ret

000017ba <lcd_putchar>:
    17ba:	a0 e0       	ldi	r26, 0x00	; 0
    17bc:	b0 e0       	ldi	r27, 0x00	; 0
    17be:	e3 ee       	ldi	r30, 0xE3	; 227
    17c0:	fb e0       	ldi	r31, 0x0B	; 11
    17c2:	0c 94 ca 1c 	jmp	0x3994	; 0x3994 <__prologue_saves__+0x14>
    17c6:	d8 2e       	mov	r13, r24
    17c8:	80 91 96 03 	lds	r24, 0x0396
    17cc:	90 91 97 03 	lds	r25, 0x0397
    17d0:	00 97       	sbiw	r24, 0x00	; 0
    17d2:	09 f4       	brne	.+2      	; 0x17d6 <lcd_putchar+0x1c>
    17d4:	f2 c0       	rjmp	.+484    	; 0x19ba <lcd_putchar+0x200>
    17d6:	2d 2d       	mov	r18, r13
    17d8:	2a 30       	cpi	r18, 0x0A	; 10
    17da:	09 f4       	brne	.+2      	; 0x17de <lcd_putchar+0x24>
    17dc:	42 c0       	rjmp	.+132    	; 0x1862 <lcd_putchar+0xa8>
    17de:	28 30       	cpi	r18, 0x08	; 8
    17e0:	c9 f4       	brne	.+50     	; 0x1814 <lcd_putchar+0x5a>
    17e2:	80 91 99 03 	lds	r24, 0x0399
    17e6:	81 50       	subi	r24, 0x01	; 1
    17e8:	80 93 99 03 	sts	0x0399, r24
    17ec:	8f 3f       	cpi	r24, 0xFF	; 255
    17ee:	51 f4       	brne	.+20     	; 0x1804 <lcd_putchar+0x4a>
    17f0:	80 91 98 03 	lds	r24, 0x0398
    17f4:	81 50       	subi	r24, 0x01	; 1
    17f6:	80 93 98 03 	sts	0x0398, r24
    17fa:	80 91 01 01 	lds	r24, 0x0101
    17fe:	81 50       	subi	r24, 0x01	; 1
    1800:	80 93 99 03 	sts	0x0399, r24
    1804:	80 91 98 03 	lds	r24, 0x0398
    1808:	8f 3f       	cpi	r24, 0xFF	; 255
    180a:	09 f0       	breq	.+2      	; 0x180e <lcd_putchar+0x54>
    180c:	d1 c0       	rjmp	.+418    	; 0x19b0 <lcd_putchar+0x1f6>
    180e:	10 92 98 03 	sts	0x0398, r1
    1812:	cc c0       	rjmp	.+408    	; 0x19ac <lcd_putchar+0x1f2>
    1814:	8d 2d       	mov	r24, r13
    1816:	42 df       	rcall	.-380    	; 0x169c <_ZN12OrangutanLCD9send_dataEh>
    1818:	80 91 98 03 	lds	r24, 0x0398
    181c:	88 23       	and	r24, r24
    181e:	b9 f0       	breq	.+46     	; 0x184e <lcd_putchar+0x94>
    1820:	90 e0       	ldi	r25, 0x00	; 0
    1822:	01 97       	sbiw	r24, 0x01	; 1
    1824:	40 91 01 01 	lds	r20, 0x0101
    1828:	50 e0       	ldi	r21, 0x00	; 0
    182a:	84 9f       	mul	r24, r20
    182c:	90 01       	movw	r18, r0
    182e:	85 9f       	mul	r24, r21
    1830:	30 0d       	add	r19, r0
    1832:	94 9f       	mul	r25, r20
    1834:	30 0d       	add	r19, r0
    1836:	11 24       	eor	r1, r1
    1838:	80 91 99 03 	lds	r24, 0x0399
    183c:	e0 91 96 03 	lds	r30, 0x0396
    1840:	f0 91 97 03 	lds	r31, 0x0397
    1844:	e2 0f       	add	r30, r18
    1846:	f3 1f       	adc	r31, r19
    1848:	e8 0f       	add	r30, r24
    184a:	f1 1d       	adc	r31, r1
    184c:	d0 82       	st	Z, r13
    184e:	80 91 99 03 	lds	r24, 0x0399
    1852:	8f 5f       	subi	r24, 0xFF	; 255
    1854:	80 93 99 03 	sts	0x0399, r24
    1858:	90 91 01 01 	lds	r25, 0x0101
    185c:	89 17       	cp	r24, r25
    185e:	09 f0       	breq	.+2      	; 0x1862 <lcd_putchar+0xa8>
    1860:	ac c0       	rjmp	.+344    	; 0x19ba <lcd_putchar+0x200>
    1862:	40 91 98 03 	lds	r20, 0x0398
    1866:	24 2f       	mov	r18, r20
    1868:	30 e0       	ldi	r19, 0x00	; 0
    186a:	80 91 00 01 	lds	r24, 0x0100
    186e:	90 e0       	ldi	r25, 0x00	; 0
    1870:	01 97       	sbiw	r24, 0x01	; 1
    1872:	28 17       	cp	r18, r24
    1874:	39 07       	cpc	r19, r25
    1876:	09 f0       	breq	.+2      	; 0x187a <lcd_putchar+0xc0>
    1878:	96 c0       	rjmp	.+300    	; 0x19a6 <lcd_putchar+0x1ec>
    187a:	c0 e0       	ldi	r28, 0x00	; 0
    187c:	d0 e0       	ldi	r29, 0x00	; 0
    187e:	3f c0       	rjmp	.+126    	; 0x18fe <lcd_putchar+0x144>
    1880:	80 e0       	ldi	r24, 0x00	; 0
    1882:	6c 2f       	mov	r22, r28
    1884:	79 df       	rcall	.-270    	; 0x1778 <_ZN12OrangutanLCD6gotoXYEhh>
    1886:	cc 24       	eor	r12, r12
    1888:	8e 01       	movw	r16, r28
    188a:	0f 5f       	subi	r16, 0xFF	; 255
    188c:	1f 4f       	sbci	r17, 0xFF	; 255
    188e:	32 c0       	rjmp	.+100    	; 0x18f4 <lcd_putchar+0x13a>
    1890:	ec 2c       	mov	r14, r12
    1892:	ff 24       	eor	r15, r15
    1894:	30 e0       	ldi	r19, 0x00	; 0
    1896:	c2 9f       	mul	r28, r18
    1898:	c0 01       	movw	r24, r0
    189a:	c3 9f       	mul	r28, r19
    189c:	90 0d       	add	r25, r0
    189e:	d2 9f       	mul	r29, r18
    18a0:	90 0d       	add	r25, r0
    18a2:	11 24       	eor	r1, r1
    18a4:	e0 91 96 03 	lds	r30, 0x0396
    18a8:	f0 91 97 03 	lds	r31, 0x0397
    18ac:	ee 0d       	add	r30, r14
    18ae:	ff 1d       	adc	r31, r15
    18b0:	e8 0f       	add	r30, r24
    18b2:	f9 1f       	adc	r31, r25
    18b4:	80 81       	ld	r24, Z
    18b6:	f2 de       	rcall	.-540    	; 0x169c <_ZN12OrangutanLCD9send_dataEh>
    18b8:	80 91 96 03 	lds	r24, 0x0396
    18bc:	90 91 97 03 	lds	r25, 0x0397
    18c0:	20 91 01 01 	lds	r18, 0x0101
    18c4:	30 e0       	ldi	r19, 0x00	; 0
    18c6:	c2 9f       	mul	r28, r18
    18c8:	f0 01       	movw	r30, r0
    18ca:	c3 9f       	mul	r28, r19
    18cc:	f0 0d       	add	r31, r0
    18ce:	d2 9f       	mul	r29, r18
    18d0:	f0 0d       	add	r31, r0
    18d2:	11 24       	eor	r1, r1
    18d4:	8e 0d       	add	r24, r14
    18d6:	9f 1d       	adc	r25, r15
    18d8:	e8 0f       	add	r30, r24
    18da:	f9 1f       	adc	r31, r25
    18dc:	02 9f       	mul	r16, r18
    18de:	d0 01       	movw	r26, r0
    18e0:	03 9f       	mul	r16, r19
    18e2:	b0 0d       	add	r27, r0
    18e4:	12 9f       	mul	r17, r18
    18e6:	b0 0d       	add	r27, r0
    18e8:	11 24       	eor	r1, r1
    18ea:	a8 0f       	add	r26, r24
    18ec:	b9 1f       	adc	r27, r25
    18ee:	8c 91       	ld	r24, X
    18f0:	80 83       	st	Z, r24
    18f2:	c3 94       	inc	r12
    18f4:	20 91 01 01 	lds	r18, 0x0101
    18f8:	c2 16       	cp	r12, r18
    18fa:	50 f2       	brcs	.-108    	; 0x1890 <lcd_putchar+0xd6>
    18fc:	e8 01       	movw	r28, r16
    18fe:	60 91 00 01 	lds	r22, 0x0100
    1902:	86 2f       	mov	r24, r22
    1904:	90 e0       	ldi	r25, 0x00	; 0
    1906:	02 97       	sbiw	r24, 0x02	; 2
    1908:	c8 17       	cp	r28, r24
    190a:	d9 07       	cpc	r29, r25
    190c:	0c f4       	brge	.+2      	; 0x1910 <lcd_putchar+0x156>
    190e:	b8 cf       	rjmp	.-144    	; 0x1880 <lcd_putchar+0xc6>
    1910:	62 30       	cpi	r22, 0x02	; 2
    1912:	d0 f1       	brcs	.+116    	; 0x1988 <lcd_putchar+0x1ce>
    1914:	62 50       	subi	r22, 0x02	; 2
    1916:	80 e0       	ldi	r24, 0x00	; 0
    1918:	2f df       	rcall	.-418    	; 0x1778 <_ZN12OrangutanLCD6gotoXYEhh>
    191a:	00 e0       	ldi	r16, 0x00	; 0
    191c:	10 e2       	ldi	r17, 0x20	; 32
    191e:	30 c0       	rjmp	.+96     	; 0x1980 <lcd_putchar+0x1c6>
    1920:	c0 2f       	mov	r28, r16
    1922:	d0 e0       	ldi	r29, 0x00	; 0
    1924:	80 91 00 01 	lds	r24, 0x0100
    1928:	90 e0       	ldi	r25, 0x00	; 0
    192a:	02 97       	sbiw	r24, 0x02	; 2
    192c:	50 e0       	ldi	r21, 0x00	; 0
    192e:	84 9f       	mul	r24, r20
    1930:	90 01       	movw	r18, r0
    1932:	85 9f       	mul	r24, r21
    1934:	30 0d       	add	r19, r0
    1936:	94 9f       	mul	r25, r20
    1938:	30 0d       	add	r19, r0
    193a:	11 24       	eor	r1, r1
    193c:	e0 91 96 03 	lds	r30, 0x0396
    1940:	f0 91 97 03 	lds	r31, 0x0397
    1944:	ec 0f       	add	r30, r28
    1946:	fd 1f       	adc	r31, r29
    1948:	e2 0f       	add	r30, r18
    194a:	f3 1f       	adc	r31, r19
    194c:	80 81       	ld	r24, Z
    194e:	a6 de       	rcall	.-692    	; 0x169c <_ZN12OrangutanLCD9send_dataEh>
    1950:	80 91 00 01 	lds	r24, 0x0100
    1954:	90 e0       	ldi	r25, 0x00	; 0
    1956:	02 97       	sbiw	r24, 0x02	; 2
    1958:	40 91 01 01 	lds	r20, 0x0101
    195c:	50 e0       	ldi	r21, 0x00	; 0
    195e:	84 9f       	mul	r24, r20
    1960:	90 01       	movw	r18, r0
    1962:	85 9f       	mul	r24, r21
    1964:	30 0d       	add	r19, r0
    1966:	94 9f       	mul	r25, r20
    1968:	30 0d       	add	r19, r0
    196a:	11 24       	eor	r1, r1
    196c:	e0 91 96 03 	lds	r30, 0x0396
    1970:	f0 91 97 03 	lds	r31, 0x0397
    1974:	ec 0f       	add	r30, r28
    1976:	fd 1f       	adc	r31, r29
    1978:	e2 0f       	add	r30, r18
    197a:	f3 1f       	adc	r31, r19
    197c:	10 83       	st	Z, r17
    197e:	0f 5f       	subi	r16, 0xFF	; 255
    1980:	40 91 01 01 	lds	r20, 0x0101
    1984:	04 17       	cp	r16, r20
    1986:	60 f2       	brcs	.-104    	; 0x1920 <lcd_putchar+0x166>
    1988:	60 91 00 01 	lds	r22, 0x0100
    198c:	61 50       	subi	r22, 0x01	; 1
    198e:	80 e0       	ldi	r24, 0x00	; 0
    1990:	f3 de       	rcall	.-538    	; 0x1778 <_ZN12OrangutanLCD6gotoXYEhh>
    1992:	10 e0       	ldi	r17, 0x00	; 0
    1994:	03 c0       	rjmp	.+6      	; 0x199c <lcd_putchar+0x1e2>
    1996:	80 e2       	ldi	r24, 0x20	; 32
    1998:	81 de       	rcall	.-766    	; 0x169c <_ZN12OrangutanLCD9send_dataEh>
    199a:	1f 5f       	subi	r17, 0xFF	; 255
    199c:	80 91 01 01 	lds	r24, 0x0101
    19a0:	18 17       	cp	r17, r24
    19a2:	c8 f3       	brcs	.-14     	; 0x1996 <lcd_putchar+0x1dc>
    19a4:	03 c0       	rjmp	.+6      	; 0x19ac <lcd_putchar+0x1f2>
    19a6:	4f 5f       	subi	r20, 0xFF	; 255
    19a8:	40 93 98 03 	sts	0x0398, r20
    19ac:	10 92 99 03 	sts	0x0399, r1
    19b0:	80 91 99 03 	lds	r24, 0x0399
    19b4:	60 91 98 03 	lds	r22, 0x0398
    19b8:	df de       	rcall	.-578    	; 0x1778 <_ZN12OrangutanLCD6gotoXYEhh>
    19ba:	2d 2d       	mov	r18, r13
    19bc:	33 27       	eor	r19, r19
    19be:	27 fd       	sbrc	r18, 7
    19c0:	30 95       	com	r19
    19c2:	c9 01       	movw	r24, r18
    19c4:	cd b7       	in	r28, 0x3d	; 61
    19c6:	de b7       	in	r29, 0x3e	; 62
    19c8:	e8 e0       	ldi	r30, 0x08	; 8
    19ca:	0c 94 e6 1c 	jmp	0x39cc	; 0x39cc <__epilogue_restores__+0x14>

000019ce <_ZN12OrangutanLCD10initPrintfEv>:
    19ce:	80 91 96 03 	lds	r24, 0x0396
    19d2:	90 91 97 03 	lds	r25, 0x0397
    19d6:	00 97       	sbiw	r24, 0x00	; 0
    19d8:	11 f0       	breq	.+4      	; 0x19de <_ZN12OrangutanLCD10initPrintfEv+0x10>
    19da:	0e 94 9e 1d 	call	0x3b3c	; 0x3b3c <free>
    19de:	20 91 00 01 	lds	r18, 0x0100
    19e2:	30 e0       	ldi	r19, 0x00	; 0
    19e4:	21 50       	subi	r18, 0x01	; 1
    19e6:	30 40       	sbci	r19, 0x00	; 0
    19e8:	80 91 01 01 	lds	r24, 0x0101
    19ec:	90 e0       	ldi	r25, 0x00	; 0
    19ee:	ac 01       	movw	r20, r24
    19f0:	24 9f       	mul	r18, r20
    19f2:	c0 01       	movw	r24, r0
    19f4:	25 9f       	mul	r18, r21
    19f6:	90 0d       	add	r25, r0
    19f8:	34 9f       	mul	r19, r20
    19fa:	90 0d       	add	r25, r0
    19fc:	11 24       	eor	r1, r1
    19fe:	0e 94 06 1d 	call	0x3a0c	; 0x3a0c <malloc>
    1a02:	90 93 97 03 	sts	0x0397, r25
    1a06:	80 93 96 03 	sts	0x0396, r24
    1a0a:	00 97       	sbiw	r24, 0x00	; 0
    1a0c:	21 f1       	breq	.+72     	; 0x1a56 <_ZN12OrangutanLCD10initPrintfEv+0x88>
    1a0e:	a0 e0       	ldi	r26, 0x00	; 0
    1a10:	b0 e2       	ldi	r27, 0x20	; 32
    1a12:	08 c0       	rjmp	.+16     	; 0x1a24 <_ZN12OrangutanLCD10initPrintfEv+0x56>
    1a14:	e0 91 96 03 	lds	r30, 0x0396
    1a18:	f0 91 97 03 	lds	r31, 0x0397
    1a1c:	e2 0f       	add	r30, r18
    1a1e:	f3 1f       	adc	r31, r19
    1a20:	b0 83       	st	Z, r27
    1a22:	af 5f       	subi	r26, 0xFF	; 255
    1a24:	2a 2f       	mov	r18, r26
    1a26:	30 e0       	ldi	r19, 0x00	; 0
    1a28:	80 91 00 01 	lds	r24, 0x0100
    1a2c:	90 e0       	ldi	r25, 0x00	; 0
    1a2e:	01 97       	sbiw	r24, 0x01	; 1
    1a30:	60 91 01 01 	lds	r22, 0x0101
    1a34:	70 e0       	ldi	r23, 0x00	; 0
    1a36:	86 9f       	mul	r24, r22
    1a38:	a0 01       	movw	r20, r0
    1a3a:	87 9f       	mul	r24, r23
    1a3c:	50 0d       	add	r21, r0
    1a3e:	96 9f       	mul	r25, r22
    1a40:	50 0d       	add	r21, r0
    1a42:	11 24       	eor	r1, r1
    1a44:	24 17       	cp	r18, r20
    1a46:	35 07       	cpc	r19, r21
    1a48:	2c f3       	brlt	.-54     	; 0x1a14 <_ZN12OrangutanLCD10initPrintfEv+0x46>
    1a4a:	8d ed       	ldi	r24, 0xDD	; 221
    1a4c:	9b e0       	ldi	r25, 0x0B	; 11
    1a4e:	6b eb       	ldi	r22, 0xBB	; 187
    1a50:	7a e0       	ldi	r23, 0x0A	; 10
    1a52:	0c 94 3d 1f 	jmp	0x3e7a	; 0x3e7a <fdevopen>
    1a56:	08 95       	ret

00001a58 <lcd_init_printf>:
    1a58:	ba cf       	rjmp	.-140    	; 0x19ce <_ZN12OrangutanLCD10initPrintfEv>
    1a5a:	08 95       	ret

00001a5c <serial_get_received_bytes>:
    1a5c:	28 2f       	mov	r18, r24
    1a5e:	30 e0       	ldi	r19, 0x00	; 0
    1a60:	f9 01       	movw	r30, r18
    1a62:	ee 0f       	add	r30, r30
    1a64:	ff 1f       	adc	r31, r31
    1a66:	43 e0       	ldi	r20, 0x03	; 3
    1a68:	22 0f       	add	r18, r18
    1a6a:	33 1f       	adc	r19, r19
    1a6c:	4a 95       	dec	r20
    1a6e:	e1 f7       	brne	.-8      	; 0x1a68 <serial_get_received_bytes+0xc>
    1a70:	e2 0f       	add	r30, r18
    1a72:	f3 1f       	adc	r31, r19
    1a74:	ee 5f       	subi	r30, 0xFE	; 254
    1a76:	fe 4f       	sbci	r31, 0xFE	; 254
    1a78:	82 81       	ldd	r24, Z+2	; 0x02
    1a7a:	08 95       	ret

00001a7c <serial_send_buffer_empty>:
    1a7c:	28 2f       	mov	r18, r24
    1a7e:	30 e0       	ldi	r19, 0x00	; 0
    1a80:	f9 01       	movw	r30, r18
    1a82:	ee 0f       	add	r30, r30
    1a84:	ff 1f       	adc	r31, r31
    1a86:	73 e0       	ldi	r23, 0x03	; 3
    1a88:	22 0f       	add	r18, r18
    1a8a:	33 1f       	adc	r19, r19
    1a8c:	7a 95       	dec	r23
    1a8e:	e1 f7       	brne	.-8      	; 0x1a88 <serial_send_buffer_empty+0xc>
    1a90:	e2 0f       	add	r30, r18
    1a92:	f3 1f       	adc	r31, r19
    1a94:	ee 5f       	subi	r30, 0xFE	; 254
    1a96:	fe 4f       	sbci	r31, 0xFE	; 254
    1a98:	41 81       	ldd	r20, Z+1	; 0x01
    1a9a:	28 2f       	mov	r18, r24
    1a9c:	30 e0       	ldi	r19, 0x00	; 0
    1a9e:	f9 01       	movw	r30, r18
    1aa0:	ee 0f       	add	r30, r30
    1aa2:	ff 1f       	adc	r31, r31
    1aa4:	53 e0       	ldi	r21, 0x03	; 3
    1aa6:	22 0f       	add	r18, r18
    1aa8:	33 1f       	adc	r19, r19
    1aaa:	5a 95       	dec	r21
    1aac:	e1 f7       	brne	.-8      	; 0x1aa6 <serial_send_buffer_empty+0x2a>
    1aae:	e2 0f       	add	r30, r18
    1ab0:	f3 1f       	adc	r31, r19
    1ab2:	ee 5f       	subi	r30, 0xFE	; 254
    1ab4:	fe 4f       	sbci	r31, 0xFE	; 254
    1ab6:	81 e0       	ldi	r24, 0x01	; 1
    1ab8:	93 81       	ldd	r25, Z+3	; 0x03
    1aba:	49 13       	cpse	r20, r25
    1abc:	80 e0       	ldi	r24, 0x00	; 0
    1abe:	08 95       	ret

00001ac0 <_ZN15OrangutanSerial21serial_rx_handle_byteEhh>:
    1ac0:	28 2f       	mov	r18, r24
    1ac2:	30 e0       	ldi	r19, 0x00	; 0
    1ac4:	f9 01       	movw	r30, r18
    1ac6:	ee 0f       	add	r30, r30
    1ac8:	ff 1f       	adc	r31, r31
    1aca:	b3 e0       	ldi	r27, 0x03	; 3
    1acc:	22 0f       	add	r18, r18
    1ace:	33 1f       	adc	r19, r19
    1ad0:	ba 95       	dec	r27
    1ad2:	e1 f7       	brne	.-8      	; 0x1acc <_ZN15OrangutanSerial21serial_rx_handle_byteEhh+0xc>
    1ad4:	e2 0f       	add	r30, r18
    1ad6:	f3 1f       	adc	r31, r19
    1ad8:	ee 5f       	subi	r30, 0xFE	; 254
    1ada:	fe 4f       	sbci	r31, 0xFE	; 254
    1adc:	40 85       	ldd	r20, Z+8	; 0x08
    1ade:	51 85       	ldd	r21, Z+9	; 0x09
    1ae0:	41 15       	cp	r20, r1
    1ae2:	51 05       	cpc	r21, r1
    1ae4:	09 f4       	brne	.+2      	; 0x1ae8 <_ZN15OrangutanSerial21serial_rx_handle_byteEhh+0x28>
    1ae6:	52 c0       	rjmp	.+164    	; 0x1b8c <_ZN15OrangutanSerial21serial_rx_handle_byteEhh+0xcc>
    1ae8:	28 2f       	mov	r18, r24
    1aea:	30 e0       	ldi	r19, 0x00	; 0
    1aec:	f9 01       	movw	r30, r18
    1aee:	ee 0f       	add	r30, r30
    1af0:	ff 1f       	adc	r31, r31
    1af2:	73 e0       	ldi	r23, 0x03	; 3
    1af4:	22 0f       	add	r18, r18
    1af6:	33 1f       	adc	r19, r19
    1af8:	7a 95       	dec	r23
    1afa:	e1 f7       	brne	.-8      	; 0x1af4 <_ZN15OrangutanSerial21serial_rx_handle_byteEhh+0x34>
    1afc:	e2 0f       	add	r30, r18
    1afe:	f3 1f       	adc	r31, r19
    1b00:	ee 5f       	subi	r30, 0xFE	; 254
    1b02:	fe 4f       	sbci	r31, 0xFE	; 254
    1b04:	72 81       	ldd	r23, Z+2	; 0x02
    1b06:	28 2f       	mov	r18, r24
    1b08:	30 e0       	ldi	r19, 0x00	; 0
    1b0a:	f9 01       	movw	r30, r18
    1b0c:	ee 0f       	add	r30, r30
    1b0e:	ff 1f       	adc	r31, r31
    1b10:	b3 e0       	ldi	r27, 0x03	; 3
    1b12:	22 0f       	add	r18, r18
    1b14:	33 1f       	adc	r19, r19
    1b16:	ba 95       	dec	r27
    1b18:	e1 f7       	brne	.-8      	; 0x1b12 <_ZN15OrangutanSerial21serial_rx_handle_byteEhh+0x52>
    1b1a:	e2 0f       	add	r30, r18
    1b1c:	f3 1f       	adc	r31, r19
    1b1e:	ee 5f       	subi	r30, 0xFE	; 254
    1b20:	fe 4f       	sbci	r31, 0xFE	; 254
    1b22:	94 81       	ldd	r25, Z+4	; 0x04
    1b24:	79 17       	cp	r23, r25
    1b26:	90 f5       	brcc	.+100    	; 0x1b8c <_ZN15OrangutanSerial21serial_rx_handle_byteEhh+0xcc>
    1b28:	28 2f       	mov	r18, r24
    1b2a:	30 e0       	ldi	r19, 0x00	; 0
    1b2c:	f9 01       	movw	r30, r18
    1b2e:	ee 0f       	add	r30, r30
    1b30:	ff 1f       	adc	r31, r31
    1b32:	73 e0       	ldi	r23, 0x03	; 3
    1b34:	22 0f       	add	r18, r18
    1b36:	33 1f       	adc	r19, r19
    1b38:	7a 95       	dec	r23
    1b3a:	e1 f7       	brne	.-8      	; 0x1b34 <_ZN15OrangutanSerial21serial_rx_handle_byteEhh+0x74>
    1b3c:	e2 0f       	add	r30, r18
    1b3e:	f3 1f       	adc	r31, r19
    1b40:	ee 5f       	subi	r30, 0xFE	; 254
    1b42:	fe 4f       	sbci	r31, 0xFE	; 254
    1b44:	92 81       	ldd	r25, Z+2	; 0x02
    1b46:	49 0f       	add	r20, r25
    1b48:	51 1d       	adc	r21, r1
    1b4a:	fa 01       	movw	r30, r20
    1b4c:	60 83       	st	Z, r22
    1b4e:	28 2f       	mov	r18, r24
    1b50:	30 e0       	ldi	r19, 0x00	; 0
    1b52:	f9 01       	movw	r30, r18
    1b54:	ee 0f       	add	r30, r30
    1b56:	ff 1f       	adc	r31, r31
    1b58:	53 e0       	ldi	r21, 0x03	; 3
    1b5a:	22 0f       	add	r18, r18
    1b5c:	33 1f       	adc	r19, r19
    1b5e:	5a 95       	dec	r21
    1b60:	e1 f7       	brne	.-8      	; 0x1b5a <_ZN15OrangutanSerial21serial_rx_handle_byteEhh+0x9a>
    1b62:	e2 0f       	add	r30, r18
    1b64:	f3 1f       	adc	r31, r19
    1b66:	ee 5f       	subi	r30, 0xFE	; 254
    1b68:	fe 4f       	sbci	r31, 0xFE	; 254
    1b6a:	92 81       	ldd	r25, Z+2	; 0x02
    1b6c:	9f 5f       	subi	r25, 0xFF	; 255
    1b6e:	28 2f       	mov	r18, r24
    1b70:	30 e0       	ldi	r19, 0x00	; 0
    1b72:	f9 01       	movw	r30, r18
    1b74:	ee 0f       	add	r30, r30
    1b76:	ff 1f       	adc	r31, r31
    1b78:	b3 e0       	ldi	r27, 0x03	; 3
    1b7a:	22 0f       	add	r18, r18
    1b7c:	33 1f       	adc	r19, r19
    1b7e:	ba 95       	dec	r27
    1b80:	e1 f7       	brne	.-8      	; 0x1b7a <_ZN15OrangutanSerial21serial_rx_handle_byteEhh+0xba>
    1b82:	e2 0f       	add	r30, r18
    1b84:	f3 1f       	adc	r31, r19
    1b86:	ee 5f       	subi	r30, 0xFE	; 254
    1b88:	fe 4f       	sbci	r31, 0xFE	; 254
    1b8a:	92 83       	std	Z+2, r25	; 0x02
    1b8c:	28 2f       	mov	r18, r24
    1b8e:	30 e0       	ldi	r19, 0x00	; 0
    1b90:	f9 01       	movw	r30, r18
    1b92:	ee 0f       	add	r30, r30
    1b94:	ff 1f       	adc	r31, r31
    1b96:	73 e0       	ldi	r23, 0x03	; 3
    1b98:	22 0f       	add	r18, r18
    1b9a:	33 1f       	adc	r19, r19
    1b9c:	7a 95       	dec	r23
    1b9e:	e1 f7       	brne	.-8      	; 0x1b98 <_ZN15OrangutanSerial21serial_rx_handle_byteEhh+0xd8>
    1ba0:	e2 0f       	add	r30, r18
    1ba2:	f3 1f       	adc	r31, r19
    1ba4:	ee 5f       	subi	r30, 0xFE	; 254
    1ba6:	fe 4f       	sbci	r31, 0xFE	; 254
    1ba8:	42 81       	ldd	r20, Z+2	; 0x02
    1baa:	28 2f       	mov	r18, r24
    1bac:	30 e0       	ldi	r19, 0x00	; 0
    1bae:	f9 01       	movw	r30, r18
    1bb0:	ee 0f       	add	r30, r30
    1bb2:	ff 1f       	adc	r31, r31
    1bb4:	53 e0       	ldi	r21, 0x03	; 3
    1bb6:	22 0f       	add	r18, r18
    1bb8:	33 1f       	adc	r19, r19
    1bba:	5a 95       	dec	r21
    1bbc:	e1 f7       	brne	.-8      	; 0x1bb6 <_ZN15OrangutanSerial21serial_rx_handle_byteEhh+0xf6>
    1bbe:	e2 0f       	add	r30, r18
    1bc0:	f3 1f       	adc	r31, r19
    1bc2:	ee 5f       	subi	r30, 0xFE	; 254
    1bc4:	fe 4f       	sbci	r31, 0xFE	; 254
    1bc6:	94 81       	ldd	r25, Z+4	; 0x04
    1bc8:	49 17       	cp	r20, r25
    1bca:	01 f5       	brne	.+64     	; 0x1c0c <_ZN15OrangutanSerial21serial_rx_handle_byteEhh+0x14c>
    1bcc:	28 2f       	mov	r18, r24
    1bce:	30 e0       	ldi	r19, 0x00	; 0
    1bd0:	f9 01       	movw	r30, r18
    1bd2:	ee 0f       	add	r30, r30
    1bd4:	ff 1f       	adc	r31, r31
    1bd6:	93 e0       	ldi	r25, 0x03	; 3
    1bd8:	22 0f       	add	r18, r18
    1bda:	33 1f       	adc	r19, r19
    1bdc:	9a 95       	dec	r25
    1bde:	e1 f7       	brne	.-8      	; 0x1bd8 <_ZN15OrangutanSerial21serial_rx_handle_byteEhh+0x118>
    1be0:	e2 0f       	add	r30, r18
    1be2:	f3 1f       	adc	r31, r19
    1be4:	ee 5f       	subi	r30, 0xFE	; 254
    1be6:	fe 4f       	sbci	r31, 0xFE	; 254
    1be8:	95 81       	ldd	r25, Z+5	; 0x05
    1bea:	99 23       	and	r25, r25
    1bec:	79 f0       	breq	.+30     	; 0x1c0c <_ZN15OrangutanSerial21serial_rx_handle_byteEhh+0x14c>
    1bee:	28 2f       	mov	r18, r24
    1bf0:	30 e0       	ldi	r19, 0x00	; 0
    1bf2:	f9 01       	movw	r30, r18
    1bf4:	ee 0f       	add	r30, r30
    1bf6:	ff 1f       	adc	r31, r31
    1bf8:	b3 e0       	ldi	r27, 0x03	; 3
    1bfa:	22 0f       	add	r18, r18
    1bfc:	33 1f       	adc	r19, r19
    1bfe:	ba 95       	dec	r27
    1c00:	e1 f7       	brne	.-8      	; 0x1bfa <_ZN15OrangutanSerial21serial_rx_handle_byteEhh+0x13a>
    1c02:	e2 0f       	add	r30, r18
    1c04:	f3 1f       	adc	r31, r19
    1c06:	ee 5f       	subi	r30, 0xFE	; 254
    1c08:	fe 4f       	sbci	r31, 0xFE	; 254
    1c0a:	12 82       	std	Z+2, r1	; 0x02
    1c0c:	08 95       	ret

00001c0e <_ZN15OrangutanSerial15serial_rx_checkEh>:
    1c0e:	0f 93       	push	r16
    1c10:	1f 93       	push	r17
    1c12:	18 2f       	mov	r17, r24
    1c14:	82 30       	cpi	r24, 0x02	; 2
    1c16:	09 f4       	brne	.+2      	; 0x1c1a <_ZN15OrangutanSerial15serial_rx_checkEh+0xc>
    1c18:	74 c0       	rjmp	.+232    	; 0x1d02 <_ZN15OrangutanSerial15serial_rx_checkEh+0xf4>
    1c1a:	88 23       	and	r24, r24
    1c1c:	19 f4       	brne	.+6      	; 0x1c24 <_ZN15OrangutanSerial15serial_rx_checkEh+0x16>
    1c1e:	e1 ec       	ldi	r30, 0xC1	; 193
    1c20:	f0 e0       	ldi	r31, 0x00	; 0
    1c22:	02 c0       	rjmp	.+4      	; 0x1c28 <_ZN15OrangutanSerial15serial_rx_checkEh+0x1a>
    1c24:	e9 ec       	ldi	r30, 0xC9	; 201
    1c26:	f0 e0       	ldi	r31, 0x00	; 0
    1c28:	80 81       	ld	r24, Z
    1c2a:	8f 77       	andi	r24, 0x7F	; 127
    1c2c:	80 83       	st	Z, r24
    1c2e:	81 2f       	mov	r24, r17
    1c30:	90 e0       	ldi	r25, 0x00	; 0
    1c32:	fc 01       	movw	r30, r24
    1c34:	ee 0f       	add	r30, r30
    1c36:	ff 1f       	adc	r31, r31
    1c38:	03 e0       	ldi	r16, 0x03	; 3
    1c3a:	88 0f       	add	r24, r24
    1c3c:	99 1f       	adc	r25, r25
    1c3e:	0a 95       	dec	r16
    1c40:	e1 f7       	brne	.-8      	; 0x1c3a <_ZN15OrangutanSerial15serial_rx_checkEh+0x2c>
    1c42:	e8 0f       	add	r30, r24
    1c44:	f9 1f       	adc	r31, r25
    1c46:	ee 5f       	subi	r30, 0xFE	; 254
    1c48:	fe 4f       	sbci	r31, 0xFE	; 254
    1c4a:	80 85       	ldd	r24, Z+8	; 0x08
    1c4c:	91 85       	ldd	r25, Z+9	; 0x09
    1c4e:	00 97       	sbiw	r24, 0x00	; 0
    1c50:	a1 f1       	breq	.+104    	; 0x1cba <_ZN15OrangutanSerial15serial_rx_checkEh+0xac>
    1c52:	21 2f       	mov	r18, r17
    1c54:	30 e0       	ldi	r19, 0x00	; 0
    1c56:	f9 01       	movw	r30, r18
    1c58:	ee 0f       	add	r30, r30
    1c5a:	ff 1f       	adc	r31, r31
    1c5c:	a3 e0       	ldi	r26, 0x03	; 3
    1c5e:	22 0f       	add	r18, r18
    1c60:	33 1f       	adc	r19, r19
    1c62:	aa 95       	dec	r26
    1c64:	e1 f7       	brne	.-8      	; 0x1c5e <_ZN15OrangutanSerial15serial_rx_checkEh+0x50>
    1c66:	e2 0f       	add	r30, r18
    1c68:	f3 1f       	adc	r31, r19
    1c6a:	ee 5f       	subi	r30, 0xFE	; 254
    1c6c:	fe 4f       	sbci	r31, 0xFE	; 254
    1c6e:	92 81       	ldd	r25, Z+2	; 0x02
    1c70:	21 2f       	mov	r18, r17
    1c72:	30 e0       	ldi	r19, 0x00	; 0
    1c74:	f9 01       	movw	r30, r18
    1c76:	ee 0f       	add	r30, r30
    1c78:	ff 1f       	adc	r31, r31
    1c7a:	63 e0       	ldi	r22, 0x03	; 3
    1c7c:	22 0f       	add	r18, r18
    1c7e:	33 1f       	adc	r19, r19
    1c80:	6a 95       	dec	r22
    1c82:	e1 f7       	brne	.-8      	; 0x1c7c <_ZN15OrangutanSerial15serial_rx_checkEh+0x6e>
    1c84:	e2 0f       	add	r30, r18
    1c86:	f3 1f       	adc	r31, r19
    1c88:	ee 5f       	subi	r30, 0xFE	; 254
    1c8a:	fe 4f       	sbci	r31, 0xFE	; 254
    1c8c:	84 81       	ldd	r24, Z+4	; 0x04
    1c8e:	98 17       	cp	r25, r24
    1c90:	a0 f4       	brcc	.+40     	; 0x1cba <_ZN15OrangutanSerial15serial_rx_checkEh+0xac>
    1c92:	11 23       	and	r17, r17
    1c94:	19 f4       	brne	.+6      	; 0x1c9c <_ZN15OrangutanSerial15serial_rx_checkEh+0x8e>
    1c96:	e0 ec       	ldi	r30, 0xC0	; 192
    1c98:	f0 e0       	ldi	r31, 0x00	; 0
    1c9a:	02 c0       	rjmp	.+4      	; 0x1ca0 <_ZN15OrangutanSerial15serial_rx_checkEh+0x92>
    1c9c:	e8 ec       	ldi	r30, 0xC8	; 200
    1c9e:	f0 e0       	ldi	r31, 0x00	; 0
    1ca0:	80 81       	ld	r24, Z
    1ca2:	87 ff       	sbrs	r24, 7
    1ca4:	0a c0       	rjmp	.+20     	; 0x1cba <_ZN15OrangutanSerial15serial_rx_checkEh+0xac>
    1ca6:	11 23       	and	r17, r17
    1ca8:	19 f4       	brne	.+6      	; 0x1cb0 <_ZN15OrangutanSerial15serial_rx_checkEh+0xa2>
    1caa:	e6 ec       	ldi	r30, 0xC6	; 198
    1cac:	f0 e0       	ldi	r31, 0x00	; 0
    1cae:	02 c0       	rjmp	.+4      	; 0x1cb4 <_ZN15OrangutanSerial15serial_rx_checkEh+0xa6>
    1cb0:	ee ec       	ldi	r30, 0xCE	; 206
    1cb2:	f0 e0       	ldi	r31, 0x00	; 0
    1cb4:	60 81       	ld	r22, Z
    1cb6:	81 2f       	mov	r24, r17
    1cb8:	03 df       	rcall	.-506    	; 0x1ac0 <_ZN15OrangutanSerial21serial_rx_handle_byteEhh>
    1cba:	21 2f       	mov	r18, r17
    1cbc:	30 e0       	ldi	r19, 0x00	; 0
    1cbe:	f9 01       	movw	r30, r18
    1cc0:	ee 0f       	add	r30, r30
    1cc2:	ff 1f       	adc	r31, r31
    1cc4:	43 e0       	ldi	r20, 0x03	; 3
    1cc6:	22 0f       	add	r18, r18
    1cc8:	33 1f       	adc	r19, r19
    1cca:	4a 95       	dec	r20
    1ccc:	e1 f7       	brne	.-8      	; 0x1cc6 <_ZN15OrangutanSerial15serial_rx_checkEh+0xb8>
    1cce:	e2 0f       	add	r30, r18
    1cd0:	f3 1f       	adc	r31, r19
    1cd2:	ee 5f       	subi	r30, 0xFE	; 254
    1cd4:	fe 4f       	sbci	r31, 0xFE	; 254
    1cd6:	80 81       	ld	r24, Z
    1cd8:	88 23       	and	r24, r24
    1cda:	09 f0       	breq	.+2      	; 0x1cde <_ZN15OrangutanSerial15serial_rx_checkEh+0xd0>
    1cdc:	57 c0       	rjmp	.+174    	; 0x1d8c <_ZN15OrangutanSerial15serial_rx_checkEh+0x17e>
    1cde:	11 23       	and	r17, r17
    1ce0:	19 f4       	brne	.+6      	; 0x1ce8 <_ZN15OrangutanSerial15serial_rx_checkEh+0xda>
    1ce2:	e1 ec       	ldi	r30, 0xC1	; 193
    1ce4:	f0 e0       	ldi	r31, 0x00	; 0
    1ce6:	02 c0       	rjmp	.+4      	; 0x1cec <_ZN15OrangutanSerial15serial_rx_checkEh+0xde>
    1ce8:	e9 ec       	ldi	r30, 0xC9	; 201
    1cea:	f0 e0       	ldi	r31, 0x00	; 0
    1cec:	80 81       	ld	r24, Z
    1cee:	80 68       	ori	r24, 0x80	; 128
    1cf0:	80 83       	st	Z, r24
    1cf2:	4c c0       	rjmp	.+152    	; 0x1d8c <_ZN15OrangutanSerial15serial_rx_checkEh+0x17e>
    1cf4:	80 91 1b 01 	lds	r24, 0x011B
    1cf8:	88 23       	and	r24, r24
    1cfa:	19 f0       	breq	.+6      	; 0x1d02 <_ZN15OrangutanSerial15serial_rx_checkEh+0xf4>
    1cfc:	10 92 18 01 	sts	0x0118, r1
    1d00:	45 c0       	rjmp	.+138    	; 0x1d8c <_ZN15OrangutanSerial15serial_rx_checkEh+0x17e>
    1d02:	80 91 1e 01 	lds	r24, 0x011E
    1d06:	90 91 1f 01 	lds	r25, 0x011F
    1d0a:	00 97       	sbiw	r24, 0x00	; 0
    1d0c:	09 f4       	brne	.+2      	; 0x1d10 <_ZN15OrangutanSerial15serial_rx_checkEh+0x102>
    1d0e:	3e c0       	rjmp	.+124    	; 0x1d8c <_ZN15OrangutanSerial15serial_rx_checkEh+0x17e>
    1d10:	90 91 18 01 	lds	r25, 0x0118
    1d14:	80 91 1a 01 	lds	r24, 0x011A
    1d18:	98 17       	cp	r25, r24
    1d1a:	c0 f5       	brcc	.+112    	; 0x1d8c <_ZN15OrangutanSerial15serial_rx_checkEh+0x17e>
    1d1c:	80 91 9f 03 	lds	r24, 0x039F
    1d20:	88 23       	and	r24, r24
    1d22:	99 f4       	brne	.+38     	; 0x1d4a <_ZN15OrangutanSerial15serial_rx_checkEh+0x13c>
    1d24:	3d d3       	rcall	.+1658   	; 0x23a0 <_ZN12OrangutanSVP15serialReadStartEv>
    1d26:	80 93 9f 03 	sts	0x039F, r24
    1d2a:	10 e0       	ldi	r17, 0x00	; 0
    1d2c:	0a c0       	rjmp	.+20     	; 0x1d42 <_ZN15OrangutanSerial15serial_rx_checkEh+0x134>
    1d2e:	35 d3       	rcall	.+1642   	; 0x239a <_ZN12OrangutanSVP11getNextByteEv>
    1d30:	e0 2f       	mov	r30, r16
    1d32:	f0 e0       	ldi	r31, 0x00	; 0
    1d34:	31 97       	sbiw	r30, 0x01	; 1
    1d36:	e1 1b       	sub	r30, r17
    1d38:	f1 09       	sbc	r31, r1
    1d3a:	e0 56       	subi	r30, 0x60	; 96
    1d3c:	fc 4f       	sbci	r31, 0xFC	; 252
    1d3e:	80 83       	st	Z, r24
    1d40:	1f 5f       	subi	r17, 0xFF	; 255
    1d42:	00 91 9f 03 	lds	r16, 0x039F
    1d46:	10 17       	cp	r17, r16
    1d48:	90 f3       	brcs	.-28     	; 0x1d2e <_ZN15OrangutanSerial15serial_rx_checkEh+0x120>
    1d4a:	a0 91 9f 03 	lds	r26, 0x039F
    1d4e:	aa 23       	and	r26, r26
    1d50:	e9 f0       	breq	.+58     	; 0x1d8c <_ZN15OrangutanSerial15serial_rx_checkEh+0x17e>
    1d52:	80 91 18 01 	lds	r24, 0x0118
    1d56:	e0 91 1e 01 	lds	r30, 0x011E
    1d5a:	f0 91 1f 01 	lds	r31, 0x011F
    1d5e:	e8 0f       	add	r30, r24
    1d60:	f1 1d       	adc	r31, r1
    1d62:	a1 50       	subi	r26, 0x01	; 1
    1d64:	a0 93 9f 03 	sts	0x039F, r26
    1d68:	b0 e0       	ldi	r27, 0x00	; 0
    1d6a:	a0 56       	subi	r26, 0x60	; 96
    1d6c:	bc 4f       	sbci	r27, 0xFC	; 252
    1d6e:	8c 91       	ld	r24, X
    1d70:	80 83       	st	Z, r24
    1d72:	80 91 18 01 	lds	r24, 0x0118
    1d76:	8f 5f       	subi	r24, 0xFF	; 255
    1d78:	80 93 18 01 	sts	0x0118, r24
    1d7c:	90 91 18 01 	lds	r25, 0x0118
    1d80:	80 91 1a 01 	lds	r24, 0x011A
    1d84:	98 17       	cp	r25, r24
    1d86:	09 f0       	breq	.+2      	; 0x1d8a <_ZN15OrangutanSerial15serial_rx_checkEh+0x17c>
    1d88:	bc cf       	rjmp	.-136    	; 0x1d02 <_ZN15OrangutanSerial15serial_rx_checkEh+0xf4>
    1d8a:	b4 cf       	rjmp	.-152    	; 0x1cf4 <_ZN15OrangutanSerial15serial_rx_checkEh+0xe6>
    1d8c:	1f 91       	pop	r17
    1d8e:	0f 91       	pop	r16
    1d90:	08 95       	ret

00001d92 <_ZN15OrangutanSerial14receive_inlineEhPchh>:
    1d92:	82 30       	cpi	r24, 0x02	; 2
    1d94:	51 f0       	breq	.+20     	; 0x1daa <_ZN15OrangutanSerial14receive_inlineEhPchh+0x18>
    1d96:	88 23       	and	r24, r24
    1d98:	19 f4       	brne	.+6      	; 0x1da0 <_ZN15OrangutanSerial14receive_inlineEhPchh+0xe>
    1d9a:	e1 ec       	ldi	r30, 0xC1	; 193
    1d9c:	f0 e0       	ldi	r31, 0x00	; 0
    1d9e:	02 c0       	rjmp	.+4      	; 0x1da4 <_ZN15OrangutanSerial14receive_inlineEhPchh+0x12>
    1da0:	e9 ec       	ldi	r30, 0xC9	; 201
    1da2:	f0 e0       	ldi	r31, 0x00	; 0
    1da4:	90 81       	ld	r25, Z
    1da6:	9f 77       	andi	r25, 0x7F	; 127
    1da8:	90 83       	st	Z, r25
    1daa:	a8 2f       	mov	r26, r24
    1dac:	b0 e0       	ldi	r27, 0x00	; 0
    1dae:	fd 01       	movw	r30, r26
    1db0:	ee 0f       	add	r30, r30
    1db2:	ff 1f       	adc	r31, r31
    1db4:	53 e0       	ldi	r21, 0x03	; 3
    1db6:	aa 0f       	add	r26, r26
    1db8:	bb 1f       	adc	r27, r27
    1dba:	5a 95       	dec	r21
    1dbc:	e1 f7       	brne	.-8      	; 0x1db6 <_ZN15OrangutanSerial14receive_inlineEhPchh+0x24>
    1dbe:	ea 0f       	add	r30, r26
    1dc0:	fb 1f       	adc	r31, r27
    1dc2:	ee 5f       	subi	r30, 0xFE	; 254
    1dc4:	fe 4f       	sbci	r31, 0xFE	; 254
    1dc6:	71 87       	std	Z+9, r23	; 0x09
    1dc8:	60 87       	std	Z+8, r22	; 0x08
    1dca:	68 2f       	mov	r22, r24
    1dcc:	70 e0       	ldi	r23, 0x00	; 0
    1dce:	fb 01       	movw	r30, r22
    1dd0:	ee 0f       	add	r30, r30
    1dd2:	ff 1f       	adc	r31, r31
    1dd4:	93 e0       	ldi	r25, 0x03	; 3
    1dd6:	66 0f       	add	r22, r22
    1dd8:	77 1f       	adc	r23, r23
    1dda:	9a 95       	dec	r25
    1ddc:	e1 f7       	brne	.-8      	; 0x1dd6 <_ZN15OrangutanSerial14receive_inlineEhPchh+0x44>
    1dde:	e6 0f       	add	r30, r22
    1de0:	f7 1f       	adc	r31, r23
    1de2:	ee 5f       	subi	r30, 0xFE	; 254
    1de4:	fe 4f       	sbci	r31, 0xFE	; 254
    1de6:	12 82       	std	Z+2, r1	; 0x02
    1de8:	68 2f       	mov	r22, r24
    1dea:	70 e0       	ldi	r23, 0x00	; 0
    1dec:	fb 01       	movw	r30, r22
    1dee:	ee 0f       	add	r30, r30
    1df0:	ff 1f       	adc	r31, r31
    1df2:	a3 e0       	ldi	r26, 0x03	; 3
    1df4:	66 0f       	add	r22, r22
    1df6:	77 1f       	adc	r23, r23
    1df8:	aa 95       	dec	r26
    1dfa:	e1 f7       	brne	.-8      	; 0x1df4 <_ZN15OrangutanSerial14receive_inlineEhPchh+0x62>
    1dfc:	e6 0f       	add	r30, r22
    1dfe:	f7 1f       	adc	r31, r23
    1e00:	ee 5f       	subi	r30, 0xFE	; 254
    1e02:	fe 4f       	sbci	r31, 0xFE	; 254
    1e04:	44 83       	std	Z+4, r20	; 0x04
    1e06:	48 2f       	mov	r20, r24
    1e08:	50 e0       	ldi	r21, 0x00	; 0
    1e0a:	fa 01       	movw	r30, r20
    1e0c:	ee 0f       	add	r30, r30
    1e0e:	ff 1f       	adc	r31, r31
    1e10:	63 e0       	ldi	r22, 0x03	; 3
    1e12:	44 0f       	add	r20, r20
    1e14:	55 1f       	adc	r21, r21
    1e16:	6a 95       	dec	r22
    1e18:	e1 f7       	brne	.-8      	; 0x1e12 <_ZN15OrangutanSerial14receive_inlineEhPchh+0x80>
    1e1a:	e4 0f       	add	r30, r20
    1e1c:	f5 1f       	adc	r31, r21
    1e1e:	ee 5f       	subi	r30, 0xFE	; 254
    1e20:	fe 4f       	sbci	r31, 0xFE	; 254
    1e22:	25 83       	std	Z+5, r18	; 0x05
    1e24:	82 30       	cpi	r24, 0x02	; 2
    1e26:	d9 f0       	breq	.+54     	; 0x1e5e <_ZN15OrangutanSerial14receive_inlineEhPchh+0xcc>
    1e28:	28 2f       	mov	r18, r24
    1e2a:	30 e0       	ldi	r19, 0x00	; 0
    1e2c:	f9 01       	movw	r30, r18
    1e2e:	ee 0f       	add	r30, r30
    1e30:	ff 1f       	adc	r31, r31
    1e32:	43 e0       	ldi	r20, 0x03	; 3
    1e34:	22 0f       	add	r18, r18
    1e36:	33 1f       	adc	r19, r19
    1e38:	4a 95       	dec	r20
    1e3a:	e1 f7       	brne	.-8      	; 0x1e34 <_ZN15OrangutanSerial14receive_inlineEhPchh+0xa2>
    1e3c:	e2 0f       	add	r30, r18
    1e3e:	f3 1f       	adc	r31, r19
    1e40:	ee 5f       	subi	r30, 0xFE	; 254
    1e42:	fe 4f       	sbci	r31, 0xFE	; 254
    1e44:	90 81       	ld	r25, Z
    1e46:	99 23       	and	r25, r25
    1e48:	51 f4       	brne	.+20     	; 0x1e5e <_ZN15OrangutanSerial14receive_inlineEhPchh+0xcc>
    1e4a:	88 23       	and	r24, r24
    1e4c:	19 f4       	brne	.+6      	; 0x1e54 <_ZN15OrangutanSerial14receive_inlineEhPchh+0xc2>
    1e4e:	e1 ec       	ldi	r30, 0xC1	; 193
    1e50:	f0 e0       	ldi	r31, 0x00	; 0
    1e52:	02 c0       	rjmp	.+4      	; 0x1e58 <_ZN15OrangutanSerial14receive_inlineEhPchh+0xc6>
    1e54:	e9 ec       	ldi	r30, 0xC9	; 201
    1e56:	f0 e0       	ldi	r31, 0x00	; 0
    1e58:	80 81       	ld	r24, Z
    1e5a:	80 68       	ori	r24, 0x80	; 128
    1e5c:	80 83       	st	Z, r24
    1e5e:	08 95       	ret

00001e60 <_ZN15OrangutanSerial11receiveRingEhPch>:
    1e60:	21 e0       	ldi	r18, 0x01	; 1
    1e62:	97 cf       	rjmp	.-210    	; 0x1d92 <_ZN15OrangutanSerial14receive_inlineEhPchh>

00001e64 <serial_receive_ring>:
    1e64:	fd cf       	rjmp	.-6      	; 0x1e60 <_ZN15OrangutanSerial11receiveRingEhPch>
    1e66:	08 95       	ret

00001e68 <__vector_20>:
    1e68:	1f 92       	push	r1
    1e6a:	0f 92       	push	r0
    1e6c:	0f b6       	in	r0, 0x3f	; 63
    1e6e:	0f 92       	push	r0
    1e70:	0b b6       	in	r0, 0x3b	; 59
    1e72:	0f 92       	push	r0
    1e74:	11 24       	eor	r1, r1
    1e76:	2f 93       	push	r18
    1e78:	3f 93       	push	r19
    1e7a:	4f 93       	push	r20
    1e7c:	5f 93       	push	r21
    1e7e:	6f 93       	push	r22
    1e80:	7f 93       	push	r23
    1e82:	8f 93       	push	r24
    1e84:	9f 93       	push	r25
    1e86:	af 93       	push	r26
    1e88:	bf 93       	push	r27
    1e8a:	ef 93       	push	r30
    1e8c:	ff 93       	push	r31
    1e8e:	60 91 c6 00 	lds	r22, 0x00C6
    1e92:	80 e0       	ldi	r24, 0x00	; 0
    1e94:	15 de       	rcall	.-982    	; 0x1ac0 <_ZN15OrangutanSerial21serial_rx_handle_byteEhh>
    1e96:	ff 91       	pop	r31
    1e98:	ef 91       	pop	r30
    1e9a:	bf 91       	pop	r27
    1e9c:	af 91       	pop	r26
    1e9e:	9f 91       	pop	r25
    1ea0:	8f 91       	pop	r24
    1ea2:	7f 91       	pop	r23
    1ea4:	6f 91       	pop	r22
    1ea6:	5f 91       	pop	r21
    1ea8:	4f 91       	pop	r20
    1eaa:	3f 91       	pop	r19
    1eac:	2f 91       	pop	r18
    1eae:	0f 90       	pop	r0
    1eb0:	0b be       	out	0x3b, r0	; 59
    1eb2:	0f 90       	pop	r0
    1eb4:	0f be       	out	0x3f, r0	; 63
    1eb6:	0f 90       	pop	r0
    1eb8:	1f 90       	pop	r1
    1eba:	18 95       	reti

00001ebc <__vector_28>:
    1ebc:	1f 92       	push	r1
    1ebe:	0f 92       	push	r0
    1ec0:	0f b6       	in	r0, 0x3f	; 63
    1ec2:	0f 92       	push	r0
    1ec4:	0b b6       	in	r0, 0x3b	; 59
    1ec6:	0f 92       	push	r0
    1ec8:	11 24       	eor	r1, r1
    1eca:	2f 93       	push	r18
    1ecc:	3f 93       	push	r19
    1ece:	4f 93       	push	r20
    1ed0:	5f 93       	push	r21
    1ed2:	6f 93       	push	r22
    1ed4:	7f 93       	push	r23
    1ed6:	8f 93       	push	r24
    1ed8:	9f 93       	push	r25
    1eda:	af 93       	push	r26
    1edc:	bf 93       	push	r27
    1ede:	ef 93       	push	r30
    1ee0:	ff 93       	push	r31
    1ee2:	60 91 ce 00 	lds	r22, 0x00CE
    1ee6:	81 e0       	ldi	r24, 0x01	; 1
    1ee8:	eb dd       	rcall	.-1066   	; 0x1ac0 <_ZN15OrangutanSerial21serial_rx_handle_byteEhh>
    1eea:	ff 91       	pop	r31
    1eec:	ef 91       	pop	r30
    1eee:	bf 91       	pop	r27
    1ef0:	af 91       	pop	r26
    1ef2:	9f 91       	pop	r25
    1ef4:	8f 91       	pop	r24
    1ef6:	7f 91       	pop	r23
    1ef8:	6f 91       	pop	r22
    1efa:	5f 91       	pop	r21
    1efc:	4f 91       	pop	r20
    1efe:	3f 91       	pop	r19
    1f00:	2f 91       	pop	r18
    1f02:	0f 90       	pop	r0
    1f04:	0b be       	out	0x3b, r0	; 59
    1f06:	0f 90       	pop	r0
    1f08:	0f be       	out	0x3f, r0	; 63
    1f0a:	0f 90       	pop	r0
    1f0c:	1f 90       	pop	r1
    1f0e:	18 95       	reti

00001f10 <_Z24uart_enable_tx_interrupth>:
    1f10:	88 23       	and	r24, r24
    1f12:	19 f4       	brne	.+6      	; 0x1f1a <_Z24uart_enable_tx_interrupth+0xa>
    1f14:	e1 ec       	ldi	r30, 0xC1	; 193
    1f16:	f0 e0       	ldi	r31, 0x00	; 0
    1f18:	02 c0       	rjmp	.+4      	; 0x1f1e <_Z24uart_enable_tx_interrupth+0xe>
    1f1a:	e9 ec       	ldi	r30, 0xC9	; 201
    1f1c:	f0 e0       	ldi	r31, 0x00	; 0
    1f1e:	80 81       	ld	r24, Z
    1f20:	80 62       	ori	r24, 0x20	; 32
    1f22:	80 83       	st	Z, r24
    1f24:	08 95       	ret

00001f26 <_Z25uart_disable_tx_interrupth>:
    1f26:	88 23       	and	r24, r24
    1f28:	19 f4       	brne	.+6      	; 0x1f30 <_Z25uart_disable_tx_interrupth+0xa>
    1f2a:	e1 ec       	ldi	r30, 0xC1	; 193
    1f2c:	f0 e0       	ldi	r31, 0x00	; 0
    1f2e:	02 c0       	rjmp	.+4      	; 0x1f34 <_Z25uart_disable_tx_interrupth+0xe>
    1f30:	e9 ec       	ldi	r30, 0xC9	; 201
    1f32:	f0 e0       	ldi	r31, 0x00	; 0
    1f34:	80 81       	ld	r24, Z
    1f36:	8f 7d       	andi	r24, 0xDF	; 223
    1f38:	80 83       	st	Z, r24
    1f3a:	08 95       	ret

00001f3c <_ZN15OrangutanSerial24uart_update_tx_interruptEh>:
    1f3c:	28 2f       	mov	r18, r24
    1f3e:	30 e0       	ldi	r19, 0x00	; 0
    1f40:	f9 01       	movw	r30, r18
    1f42:	ee 0f       	add	r30, r30
    1f44:	ff 1f       	adc	r31, r31
    1f46:	93 e0       	ldi	r25, 0x03	; 3
    1f48:	22 0f       	add	r18, r18
    1f4a:	33 1f       	adc	r19, r19
    1f4c:	9a 95       	dec	r25
    1f4e:	e1 f7       	brne	.-8      	; 0x1f48 <_ZN15OrangutanSerial24uart_update_tx_interruptEh+0xc>
    1f50:	e2 0f       	add	r30, r18
    1f52:	f3 1f       	adc	r31, r19
    1f54:	ee 5f       	subi	r30, 0xFE	; 254
    1f56:	fe 4f       	sbci	r31, 0xFE	; 254
    1f58:	26 81       	ldd	r18, Z+6	; 0x06
    1f5a:	37 81       	ldd	r19, Z+7	; 0x07
    1f5c:	21 15       	cp	r18, r1
    1f5e:	31 05       	cpc	r19, r1
    1f60:	91 f1       	breq	.+100    	; 0x1fc6 <_ZN15OrangutanSerial24uart_update_tx_interruptEh+0x8a>
    1f62:	28 2f       	mov	r18, r24
    1f64:	30 e0       	ldi	r19, 0x00	; 0
    1f66:	f9 01       	movw	r30, r18
    1f68:	ee 0f       	add	r30, r30
    1f6a:	ff 1f       	adc	r31, r31
    1f6c:	a3 e0       	ldi	r26, 0x03	; 3
    1f6e:	22 0f       	add	r18, r18
    1f70:	33 1f       	adc	r19, r19
    1f72:	aa 95       	dec	r26
    1f74:	e1 f7       	brne	.-8      	; 0x1f6e <_ZN15OrangutanSerial24uart_update_tx_interruptEh+0x32>
    1f76:	e2 0f       	add	r30, r18
    1f78:	f3 1f       	adc	r31, r19
    1f7a:	ee 5f       	subi	r30, 0xFE	; 254
    1f7c:	fe 4f       	sbci	r31, 0xFE	; 254
    1f7e:	41 81       	ldd	r20, Z+1	; 0x01
    1f80:	28 2f       	mov	r18, r24
    1f82:	30 e0       	ldi	r19, 0x00	; 0
    1f84:	f9 01       	movw	r30, r18
    1f86:	ee 0f       	add	r30, r30
    1f88:	ff 1f       	adc	r31, r31
    1f8a:	63 e0       	ldi	r22, 0x03	; 3
    1f8c:	22 0f       	add	r18, r18
    1f8e:	33 1f       	adc	r19, r19
    1f90:	6a 95       	dec	r22
    1f92:	e1 f7       	brne	.-8      	; 0x1f8c <_ZN15OrangutanSerial24uart_update_tx_interruptEh+0x50>
    1f94:	e2 0f       	add	r30, r18
    1f96:	f3 1f       	adc	r31, r19
    1f98:	ee 5f       	subi	r30, 0xFE	; 254
    1f9a:	fe 4f       	sbci	r31, 0xFE	; 254
    1f9c:	93 81       	ldd	r25, Z+3	; 0x03
    1f9e:	49 17       	cp	r20, r25
    1fa0:	90 f4       	brcc	.+36     	; 0x1fc6 <_ZN15OrangutanSerial24uart_update_tx_interruptEh+0x8a>
    1fa2:	28 2f       	mov	r18, r24
    1fa4:	30 e0       	ldi	r19, 0x00	; 0
    1fa6:	f9 01       	movw	r30, r18
    1fa8:	ee 0f       	add	r30, r30
    1faa:	ff 1f       	adc	r31, r31
    1fac:	43 e0       	ldi	r20, 0x03	; 3
    1fae:	22 0f       	add	r18, r18
    1fb0:	33 1f       	adc	r19, r19
    1fb2:	4a 95       	dec	r20
    1fb4:	e1 f7       	brne	.-8      	; 0x1fae <_ZN15OrangutanSerial24uart_update_tx_interruptEh+0x72>
    1fb6:	e2 0f       	add	r30, r18
    1fb8:	f3 1f       	adc	r31, r19
    1fba:	ee 5f       	subi	r30, 0xFE	; 254
    1fbc:	fe 4f       	sbci	r31, 0xFE	; 254
    1fbe:	90 81       	ld	r25, Z
    1fc0:	99 23       	and	r25, r25
    1fc2:	09 f4       	brne	.+2      	; 0x1fc6 <_ZN15OrangutanSerial24uart_update_tx_interruptEh+0x8a>
    1fc4:	a5 cf       	rjmp	.-182    	; 0x1f10 <_Z24uart_enable_tx_interrupth>
    1fc6:	af cf       	rjmp	.-162    	; 0x1f26 <_Z25uart_disable_tx_interrupth>

00001fc8 <_ZN15OrangutanSerial15initUART_inlineEh>:
    1fc8:	82 30       	cpi	r24, 0x02	; 2
    1fca:	29 f1       	breq	.+74     	; 0x2016 <_ZN15OrangutanSerial15initUART_inlineEh+0x4e>
    1fcc:	28 2f       	mov	r18, r24
    1fce:	30 e0       	ldi	r19, 0x00	; 0
    1fd0:	f9 01       	movw	r30, r18
    1fd2:	ee 0f       	add	r30, r30
    1fd4:	ff 1f       	adc	r31, r31
    1fd6:	53 e0       	ldi	r21, 0x03	; 3
    1fd8:	22 0f       	add	r18, r18
    1fda:	33 1f       	adc	r19, r19
    1fdc:	5a 95       	dec	r21
    1fde:	e1 f7       	brne	.-8      	; 0x1fd8 <_ZN15OrangutanSerial15initUART_inlineEh+0x10>
    1fe0:	e2 0f       	add	r30, r18
    1fe2:	f3 1f       	adc	r31, r19
    1fe4:	ee 5f       	subi	r30, 0xFE	; 254
    1fe6:	fe 4f       	sbci	r31, 0xFE	; 254
    1fe8:	90 81       	ld	r25, Z
    1fea:	99 23       	and	r25, r25
    1fec:	49 f4       	brne	.+18     	; 0x2000 <_ZN15OrangutanSerial15initUART_inlineEh+0x38>
    1fee:	88 23       	and	r24, r24
    1ff0:	19 f4       	brne	.+6      	; 0x1ff8 <_ZN15OrangutanSerial15initUART_inlineEh+0x30>
    1ff2:	e1 ec       	ldi	r30, 0xC1	; 193
    1ff4:	f0 e0       	ldi	r31, 0x00	; 0
    1ff6:	02 c0       	rjmp	.+4      	; 0x1ffc <_ZN15OrangutanSerial15initUART_inlineEh+0x34>
    1ff8:	e9 ec       	ldi	r30, 0xC9	; 201
    1ffa:	f0 e0       	ldi	r31, 0x00	; 0
    1ffc:	98 e9       	ldi	r25, 0x98	; 152
    1ffe:	08 c0       	rjmp	.+16     	; 0x2010 <_ZN15OrangutanSerial15initUART_inlineEh+0x48>
    2000:	88 23       	and	r24, r24
    2002:	19 f4       	brne	.+6      	; 0x200a <_ZN15OrangutanSerial15initUART_inlineEh+0x42>
    2004:	e1 ec       	ldi	r30, 0xC1	; 193
    2006:	f0 e0       	ldi	r31, 0x00	; 0
    2008:	02 c0       	rjmp	.+4      	; 0x200e <_ZN15OrangutanSerial15initUART_inlineEh+0x46>
    200a:	e9 ec       	ldi	r30, 0xC9	; 201
    200c:	f0 e0       	ldi	r31, 0x00	; 0
    200e:	98 e1       	ldi	r25, 0x18	; 24
    2010:	90 83       	st	Z, r25
    2012:	94 df       	rcall	.-216    	; 0x1f3c <_ZN15OrangutanSerial24uart_update_tx_interruptEh>
    2014:	78 94       	sei
    2016:	08 95       	ret

00002018 <_ZN15OrangutanSerial8initPortEh>:
    2018:	88 23       	and	r24, r24
    201a:	19 f0       	breq	.+6      	; 0x2022 <_ZN15OrangutanSerial8initPortEh+0xa>
    201c:	81 30       	cpi	r24, 0x01	; 1
    201e:	29 f4       	brne	.+10     	; 0x202a <_ZN15OrangutanSerial8initPortEh+0x12>
    2020:	02 c0       	rjmp	.+4      	; 0x2026 <_ZN15OrangutanSerial8initPortEh+0xe>
    2022:	80 e0       	ldi	r24, 0x00	; 0
    2024:	d1 cf       	rjmp	.-94     	; 0x1fc8 <_ZN15OrangutanSerial15initUART_inlineEh>
    2026:	81 e0       	ldi	r24, 0x01	; 1
    2028:	cf cf       	rjmp	.-98     	; 0x1fc8 <_ZN15OrangutanSerial15initUART_inlineEh>
    202a:	08 95       	ret

0000202c <_ZN15OrangutanSerial11setBaudRateEhm>:
    202c:	a0 e0       	ldi	r26, 0x00	; 0
    202e:	b0 e0       	ldi	r27, 0x00	; 0
    2030:	ec e1       	ldi	r30, 0x1C	; 28
    2032:	f0 e1       	ldi	r31, 0x10	; 16
    2034:	0c 94 cb 1c 	jmp	0x3996	; 0x3996 <__prologue_saves__+0x16>
    2038:	d8 2e       	mov	r13, r24
    203a:	7a 01       	movw	r14, r20
    203c:	8b 01       	movw	r16, r22
    203e:	ec df       	rcall	.-40     	; 0x2018 <_ZN15OrangutanSerial8initPortEh>
    2040:	8d 2d       	mov	r24, r13
    2042:	82 30       	cpi	r24, 0x02	; 2
    2044:	01 f1       	breq	.+64     	; 0x2086 <_ZN15OrangutanSerial11setBaudRateEhm+0x5a>
    2046:	dd 20       	and	r13, r13
    2048:	19 f4       	brne	.+6      	; 0x2050 <_ZN15OrangutanSerial11setBaudRateEhm+0x24>
    204a:	c4 ec       	ldi	r28, 0xC4	; 196
    204c:	d0 e0       	ldi	r29, 0x00	; 0
    204e:	02 c0       	rjmp	.+4      	; 0x2054 <_ZN15OrangutanSerial11setBaudRateEhm+0x28>
    2050:	cc ec       	ldi	r28, 0xCC	; 204
    2052:	d0 e0       	ldi	r29, 0x00	; 0
    2054:	c8 01       	movw	r24, r16
    2056:	b7 01       	movw	r22, r14
    2058:	28 ef       	ldi	r18, 0xF8	; 248
    205a:	3f ef       	ldi	r19, 0xFF	; 255
    205c:	4f ef       	ldi	r20, 0xFF	; 255
    205e:	5f ef       	ldi	r21, 0xFF	; 255
    2060:	0e 94 63 1c 	call	0x38c6	; 0x38c6 <__mulsi3>
    2064:	60 50       	subi	r22, 0x00	; 0
    2066:	73 4d       	sbci	r23, 0xD3	; 211
    2068:	8e 4c       	sbci	r24, 0xCE	; 206
    206a:	9e 4f       	sbci	r25, 0xFE	; 254
    206c:	a8 01       	movw	r20, r16
    206e:	97 01       	movw	r18, r14
    2070:	e4 e0       	ldi	r30, 0x04	; 4
    2072:	22 0f       	add	r18, r18
    2074:	33 1f       	adc	r19, r19
    2076:	44 1f       	adc	r20, r20
    2078:	55 1f       	adc	r21, r21
    207a:	ea 95       	dec	r30
    207c:	d1 f7       	brne	.-12     	; 0x2072 <_ZN15OrangutanSerial11setBaudRateEhm+0x46>
    207e:	0e 94 72 1c 	call	0x38e4	; 0x38e4 <__udivmodsi4>
    2082:	39 83       	std	Y+1, r19	; 0x01
    2084:	28 83       	st	Y, r18
    2086:	cd b7       	in	r28, 0x3d	; 61
    2088:	de b7       	in	r29, 0x3e	; 62
    208a:	e7 e0       	ldi	r30, 0x07	; 7
    208c:	0c 94 e7 1c 	jmp	0x39ce	; 0x39ce <__epilogue_restores__+0x16>

00002090 <serial_set_baud_rate>:
    2090:	cd cf       	rjmp	.-102    	; 0x202c <_ZN15OrangutanSerial11setBaudRateEhm>
    2092:	08 95       	ret

00002094 <_ZN15OrangutanSerial11uart_tx_isrEh>:
    2094:	28 2f       	mov	r18, r24
    2096:	30 e0       	ldi	r19, 0x00	; 0
    2098:	f9 01       	movw	r30, r18
    209a:	ee 0f       	add	r30, r30
    209c:	ff 1f       	adc	r31, r31
    209e:	73 e0       	ldi	r23, 0x03	; 3
    20a0:	22 0f       	add	r18, r18
    20a2:	33 1f       	adc	r19, r19
    20a4:	7a 95       	dec	r23
    20a6:	e1 f7       	brne	.-8      	; 0x20a0 <_ZN15OrangutanSerial11uart_tx_isrEh+0xc>
    20a8:	e2 0f       	add	r30, r18
    20aa:	f3 1f       	adc	r31, r19
    20ac:	ee 5f       	subi	r30, 0xFE	; 254
    20ae:	fe 4f       	sbci	r31, 0xFE	; 254
    20b0:	46 81       	ldd	r20, Z+6	; 0x06
    20b2:	57 81       	ldd	r21, Z+7	; 0x07
    20b4:	41 15       	cp	r20, r1
    20b6:	51 05       	cpc	r21, r1
    20b8:	09 f4       	brne	.+2      	; 0x20bc <_ZN15OrangutanSerial11uart_tx_isrEh+0x28>
    20ba:	65 c0       	rjmp	.+202    	; 0x2186 <_ZN15OrangutanSerial11uart_tx_isrEh+0xf2>
    20bc:	28 2f       	mov	r18, r24
    20be:	30 e0       	ldi	r19, 0x00	; 0
    20c0:	f9 01       	movw	r30, r18
    20c2:	ee 0f       	add	r30, r30
    20c4:	ff 1f       	adc	r31, r31
    20c6:	93 e0       	ldi	r25, 0x03	; 3
    20c8:	22 0f       	add	r18, r18
    20ca:	33 1f       	adc	r19, r19
    20cc:	9a 95       	dec	r25
    20ce:	e1 f7       	brne	.-8      	; 0x20c8 <_ZN15OrangutanSerial11uart_tx_isrEh+0x34>
    20d0:	e2 0f       	add	r30, r18
    20d2:	f3 1f       	adc	r31, r19
    20d4:	ee 5f       	subi	r30, 0xFE	; 254
    20d6:	fe 4f       	sbci	r31, 0xFE	; 254
    20d8:	61 81       	ldd	r22, Z+1	; 0x01
    20da:	28 2f       	mov	r18, r24
    20dc:	30 e0       	ldi	r19, 0x00	; 0
    20de:	f9 01       	movw	r30, r18
    20e0:	ee 0f       	add	r30, r30
    20e2:	ff 1f       	adc	r31, r31
    20e4:	a3 e0       	ldi	r26, 0x03	; 3
    20e6:	22 0f       	add	r18, r18
    20e8:	33 1f       	adc	r19, r19
    20ea:	aa 95       	dec	r26
    20ec:	e1 f7       	brne	.-8      	; 0x20e6 <_ZN15OrangutanSerial11uart_tx_isrEh+0x52>
    20ee:	e2 0f       	add	r30, r18
    20f0:	f3 1f       	adc	r31, r19
    20f2:	ee 5f       	subi	r30, 0xFE	; 254
    20f4:	fe 4f       	sbci	r31, 0xFE	; 254
    20f6:	93 81       	ldd	r25, Z+3	; 0x03
    20f8:	69 17       	cp	r22, r25
    20fa:	08 f0       	brcs	.+2      	; 0x20fe <_ZN15OrangutanSerial11uart_tx_isrEh+0x6a>
    20fc:	44 c0       	rjmp	.+136    	; 0x2186 <_ZN15OrangutanSerial11uart_tx_isrEh+0xf2>
    20fe:	88 23       	and	r24, r24
    2100:	19 f4       	brne	.+6      	; 0x2108 <_ZN15OrangutanSerial11uart_tx_isrEh+0x74>
    2102:	e0 ec       	ldi	r30, 0xC0	; 192
    2104:	f0 e0       	ldi	r31, 0x00	; 0
    2106:	02 c0       	rjmp	.+4      	; 0x210c <_ZN15OrangutanSerial11uart_tx_isrEh+0x78>
    2108:	e8 ec       	ldi	r30, 0xC8	; 200
    210a:	f0 e0       	ldi	r31, 0x00	; 0
    210c:	90 81       	ld	r25, Z
    210e:	95 ff       	sbrs	r25, 5
    2110:	3a c0       	rjmp	.+116    	; 0x2186 <_ZN15OrangutanSerial11uart_tx_isrEh+0xf2>
    2112:	88 23       	and	r24, r24
    2114:	19 f4       	brne	.+6      	; 0x211c <_ZN15OrangutanSerial11uart_tx_isrEh+0x88>
    2116:	a6 ec       	ldi	r26, 0xC6	; 198
    2118:	b0 e0       	ldi	r27, 0x00	; 0
    211a:	02 c0       	rjmp	.+4      	; 0x2120 <_ZN15OrangutanSerial11uart_tx_isrEh+0x8c>
    211c:	ae ec       	ldi	r26, 0xCE	; 206
    211e:	b0 e0       	ldi	r27, 0x00	; 0
    2120:	28 2f       	mov	r18, r24
    2122:	30 e0       	ldi	r19, 0x00	; 0
    2124:	f9 01       	movw	r30, r18
    2126:	ee 0f       	add	r30, r30
    2128:	ff 1f       	adc	r31, r31
    212a:	63 e0       	ldi	r22, 0x03	; 3
    212c:	22 0f       	add	r18, r18
    212e:	33 1f       	adc	r19, r19
    2130:	6a 95       	dec	r22
    2132:	e1 f7       	brne	.-8      	; 0x212c <_ZN15OrangutanSerial11uart_tx_isrEh+0x98>
    2134:	e2 0f       	add	r30, r18
    2136:	f3 1f       	adc	r31, r19
    2138:	ee 5f       	subi	r30, 0xFE	; 254
    213a:	fe 4f       	sbci	r31, 0xFE	; 254
    213c:	91 81       	ldd	r25, Z+1	; 0x01
    213e:	49 0f       	add	r20, r25
    2140:	51 1d       	adc	r21, r1
    2142:	fa 01       	movw	r30, r20
    2144:	90 81       	ld	r25, Z
    2146:	9c 93       	st	X, r25
    2148:	28 2f       	mov	r18, r24
    214a:	30 e0       	ldi	r19, 0x00	; 0
    214c:	f9 01       	movw	r30, r18
    214e:	ee 0f       	add	r30, r30
    2150:	ff 1f       	adc	r31, r31
    2152:	93 e0       	ldi	r25, 0x03	; 3
    2154:	22 0f       	add	r18, r18
    2156:	33 1f       	adc	r19, r19
    2158:	9a 95       	dec	r25
    215a:	e1 f7       	brne	.-8      	; 0x2154 <_ZN15OrangutanSerial11uart_tx_isrEh+0xc0>
    215c:	e2 0f       	add	r30, r18
    215e:	f3 1f       	adc	r31, r19
    2160:	ee 5f       	subi	r30, 0xFE	; 254
    2162:	fe 4f       	sbci	r31, 0xFE	; 254
    2164:	91 81       	ldd	r25, Z+1	; 0x01
    2166:	9f 5f       	subi	r25, 0xFF	; 255
    2168:	28 2f       	mov	r18, r24
    216a:	30 e0       	ldi	r19, 0x00	; 0
    216c:	f9 01       	movw	r30, r18
    216e:	ee 0f       	add	r30, r30
    2170:	ff 1f       	adc	r31, r31
    2172:	a3 e0       	ldi	r26, 0x03	; 3
    2174:	22 0f       	add	r18, r18
    2176:	33 1f       	adc	r19, r19
    2178:	aa 95       	dec	r26
    217a:	e1 f7       	brne	.-8      	; 0x2174 <_ZN15OrangutanSerial11uart_tx_isrEh+0xe0>
    217c:	e2 0f       	add	r30, r18
    217e:	f3 1f       	adc	r31, r19
    2180:	ee 5f       	subi	r30, 0xFE	; 254
    2182:	fe 4f       	sbci	r31, 0xFE	; 254
    2184:	91 83       	std	Z+1, r25	; 0x01
    2186:	da ce       	rjmp	.-588    	; 0x1f3c <_ZN15OrangutanSerial24uart_update_tx_interruptEh>

00002188 <_ZN15OrangutanSerial15serial_tx_checkEh>:
    2188:	1f 93       	push	r17
    218a:	18 2f       	mov	r17, r24
    218c:	82 30       	cpi	r24, 0x02	; 2
    218e:	21 f0       	breq	.+8      	; 0x2198 <_ZN15OrangutanSerial15serial_tx_checkEh+0x10>
    2190:	ca de       	rcall	.-620    	; 0x1f26 <_Z25uart_disable_tx_interrupth>
    2192:	81 2f       	mov	r24, r17
    2194:	7f df       	rcall	.-258    	; 0x2094 <_ZN15OrangutanSerial11uart_tx_isrEh>
    2196:	1c c0       	rjmp	.+56     	; 0x21d0 <_ZN15OrangutanSerial15serial_tx_checkEh+0x48>
    2198:	80 91 1c 01 	lds	r24, 0x011C
    219c:	90 91 1d 01 	lds	r25, 0x011D
    21a0:	00 97       	sbiw	r24, 0x00	; 0
    21a2:	b1 f0       	breq	.+44     	; 0x21d0 <_ZN15OrangutanSerial15serial_tx_checkEh+0x48>
    21a4:	30 91 17 01 	lds	r19, 0x0117
    21a8:	20 91 19 01 	lds	r18, 0x0119
    21ac:	32 17       	cp	r19, r18
    21ae:	80 f4       	brcc	.+32     	; 0x21d0 <_ZN15OrangutanSerial15serial_tx_checkEh+0x48>
    21b0:	06 c0       	rjmp	.+12     	; 0x21be <_ZN15OrangutanSerial15serial_tx_checkEh+0x36>
    21b2:	80 91 17 01 	lds	r24, 0x0117
    21b6:	8f 5f       	subi	r24, 0xFF	; 255
    21b8:	80 93 17 01 	sts	0x0117, r24
    21bc:	ed cf       	rjmp	.-38     	; 0x2198 <_ZN15OrangutanSerial15serial_tx_checkEh+0x10>
    21be:	20 91 17 01 	lds	r18, 0x0117
    21c2:	82 0f       	add	r24, r18
    21c4:	91 1d       	adc	r25, r1
    21c6:	fc 01       	movw	r30, r24
    21c8:	80 81       	ld	r24, Z
    21ca:	ee d0       	rcall	.+476    	; 0x23a8 <_ZN12OrangutanSVP17serialSendIfReadyEc>
    21cc:	88 23       	and	r24, r24
    21ce:	89 f7       	brne	.-30     	; 0x21b2 <_ZN15OrangutanSerial15serial_tx_checkEh+0x2a>
    21d0:	1f 91       	pop	r17
    21d2:	08 95       	ret

000021d4 <_ZN15OrangutanSerial5checkEv>:
    21d4:	80 e0       	ldi	r24, 0x00	; 0
    21d6:	d8 df       	rcall	.-80     	; 0x2188 <_ZN15OrangutanSerial15serial_tx_checkEh>
    21d8:	81 e0       	ldi	r24, 0x01	; 1
    21da:	d6 df       	rcall	.-84     	; 0x2188 <_ZN15OrangutanSerial15serial_tx_checkEh>
    21dc:	82 e0       	ldi	r24, 0x02	; 2
    21de:	d4 df       	rcall	.-88     	; 0x2188 <_ZN15OrangutanSerial15serial_tx_checkEh>
    21e0:	80 e0       	ldi	r24, 0x00	; 0
    21e2:	15 dd       	rcall	.-1494   	; 0x1c0e <_ZN15OrangutanSerial15serial_rx_checkEh>
    21e4:	81 e0       	ldi	r24, 0x01	; 1
    21e6:	13 dd       	rcall	.-1498   	; 0x1c0e <_ZN15OrangutanSerial15serial_rx_checkEh>
    21e8:	82 e0       	ldi	r24, 0x02	; 2
    21ea:	11 cd       	rjmp	.-1502   	; 0x1c0e <_ZN15OrangutanSerial15serial_rx_checkEh>

000021ec <serial_check>:
    21ec:	f3 cf       	rjmp	.-26     	; 0x21d4 <_ZN15OrangutanSerial5checkEv>
    21ee:	08 95       	ret

000021f0 <_ZN15OrangutanSerial4sendEhPch>:
    21f0:	28 2f       	mov	r18, r24
    21f2:	30 e0       	ldi	r19, 0x00	; 0
    21f4:	f9 01       	movw	r30, r18
    21f6:	ee 0f       	add	r30, r30
    21f8:	ff 1f       	adc	r31, r31
    21fa:	93 e0       	ldi	r25, 0x03	; 3
    21fc:	22 0f       	add	r18, r18
    21fe:	33 1f       	adc	r19, r19
    2200:	9a 95       	dec	r25
    2202:	e1 f7       	brne	.-8      	; 0x21fc <_ZN15OrangutanSerial4sendEhPch+0xc>
    2204:	e2 0f       	add	r30, r18
    2206:	f3 1f       	adc	r31, r19
    2208:	ee 5f       	subi	r30, 0xFE	; 254
    220a:	fe 4f       	sbci	r31, 0xFE	; 254
    220c:	77 83       	std	Z+7, r23	; 0x07
    220e:	66 83       	std	Z+6, r22	; 0x06
    2210:	28 2f       	mov	r18, r24
    2212:	30 e0       	ldi	r19, 0x00	; 0
    2214:	f9 01       	movw	r30, r18
    2216:	ee 0f       	add	r30, r30
    2218:	ff 1f       	adc	r31, r31
    221a:	a3 e0       	ldi	r26, 0x03	; 3
    221c:	22 0f       	add	r18, r18
    221e:	33 1f       	adc	r19, r19
    2220:	aa 95       	dec	r26
    2222:	e1 f7       	brne	.-8      	; 0x221c <_ZN15OrangutanSerial4sendEhPch+0x2c>
    2224:	e2 0f       	add	r30, r18
    2226:	f3 1f       	adc	r31, r19
    2228:	ee 5f       	subi	r30, 0xFE	; 254
    222a:	fe 4f       	sbci	r31, 0xFE	; 254
    222c:	11 82       	std	Z+1, r1	; 0x01
    222e:	28 2f       	mov	r18, r24
    2230:	30 e0       	ldi	r19, 0x00	; 0
    2232:	f9 01       	movw	r30, r18
    2234:	ee 0f       	add	r30, r30
    2236:	ff 1f       	adc	r31, r31
    2238:	63 e0       	ldi	r22, 0x03	; 3
    223a:	22 0f       	add	r18, r18
    223c:	33 1f       	adc	r19, r19
    223e:	6a 95       	dec	r22
    2240:	e1 f7       	brne	.-8      	; 0x223a <_ZN15OrangutanSerial4sendEhPch+0x4a>
    2242:	e2 0f       	add	r30, r18
    2244:	f3 1f       	adc	r31, r19
    2246:	ee 5f       	subi	r30, 0xFE	; 254
    2248:	fe 4f       	sbci	r31, 0xFE	; 254
    224a:	43 83       	std	Z+3, r20	; 0x03
    224c:	82 30       	cpi	r24, 0x02	; 2
    224e:	09 f0       	breq	.+2      	; 0x2252 <_ZN15OrangutanSerial4sendEhPch+0x62>
    2250:	75 ce       	rjmp	.-790    	; 0x1f3c <_ZN15OrangutanSerial24uart_update_tx_interruptEh>
    2252:	08 95       	ret

00002254 <serial_send>:
    2254:	cd cf       	rjmp	.-102    	; 0x21f0 <_ZN15OrangutanSerial4sendEhPch>
    2256:	08 95       	ret

00002258 <__vector_21>:
    2258:	1f 92       	push	r1
    225a:	0f 92       	push	r0
    225c:	0f b6       	in	r0, 0x3f	; 63
    225e:	0f 92       	push	r0
    2260:	0b b6       	in	r0, 0x3b	; 59
    2262:	0f 92       	push	r0
    2264:	11 24       	eor	r1, r1
    2266:	2f 93       	push	r18
    2268:	3f 93       	push	r19
    226a:	4f 93       	push	r20
    226c:	5f 93       	push	r21
    226e:	6f 93       	push	r22
    2270:	7f 93       	push	r23
    2272:	8f 93       	push	r24
    2274:	9f 93       	push	r25
    2276:	af 93       	push	r26
    2278:	bf 93       	push	r27
    227a:	ef 93       	push	r30
    227c:	ff 93       	push	r31
    227e:	80 e0       	ldi	r24, 0x00	; 0
    2280:	09 df       	rcall	.-494    	; 0x2094 <_ZN15OrangutanSerial11uart_tx_isrEh>
    2282:	ff 91       	pop	r31
    2284:	ef 91       	pop	r30
    2286:	bf 91       	pop	r27
    2288:	af 91       	pop	r26
    228a:	9f 91       	pop	r25
    228c:	8f 91       	pop	r24
    228e:	7f 91       	pop	r23
    2290:	6f 91       	pop	r22
    2292:	5f 91       	pop	r21
    2294:	4f 91       	pop	r20
    2296:	3f 91       	pop	r19
    2298:	2f 91       	pop	r18
    229a:	0f 90       	pop	r0
    229c:	0b be       	out	0x3b, r0	; 59
    229e:	0f 90       	pop	r0
    22a0:	0f be       	out	0x3f, r0	; 63
    22a2:	0f 90       	pop	r0
    22a4:	1f 90       	pop	r1
    22a6:	18 95       	reti

000022a8 <__vector_29>:
    22a8:	1f 92       	push	r1
    22aa:	0f 92       	push	r0
    22ac:	0f b6       	in	r0, 0x3f	; 63
    22ae:	0f 92       	push	r0
    22b0:	0b b6       	in	r0, 0x3b	; 59
    22b2:	0f 92       	push	r0
    22b4:	11 24       	eor	r1, r1
    22b6:	2f 93       	push	r18
    22b8:	3f 93       	push	r19
    22ba:	4f 93       	push	r20
    22bc:	5f 93       	push	r21
    22be:	6f 93       	push	r22
    22c0:	7f 93       	push	r23
    22c2:	8f 93       	push	r24
    22c4:	9f 93       	push	r25
    22c6:	af 93       	push	r26
    22c8:	bf 93       	push	r27
    22ca:	ef 93       	push	r30
    22cc:	ff 93       	push	r31
    22ce:	81 e0       	ldi	r24, 0x01	; 1
    22d0:	e1 de       	rcall	.-574    	; 0x2094 <_ZN15OrangutanSerial11uart_tx_isrEh>
    22d2:	ff 91       	pop	r31
    22d4:	ef 91       	pop	r30
    22d6:	bf 91       	pop	r27
    22d8:	af 91       	pop	r26
    22da:	9f 91       	pop	r25
    22dc:	8f 91       	pop	r24
    22de:	7f 91       	pop	r23
    22e0:	6f 91       	pop	r22
    22e2:	5f 91       	pop	r21
    22e4:	4f 91       	pop	r20
    22e6:	3f 91       	pop	r19
    22e8:	2f 91       	pop	r18
    22ea:	0f 90       	pop	r0
    22ec:	0b be       	out	0x3b, r0	; 59
    22ee:	0f 90       	pop	r0
    22f0:	0f be       	out	0x3f, r0	; 63
    22f2:	0f 90       	pop	r0
    22f4:	1f 90       	pop	r1
    22f6:	18 95       	reti

000022f8 <_ZN13OrangutanTime17delayMicrosecondsEj>:
    22f8:	6f 93       	push	r22
    22fa:	64 e0       	ldi	r22, 0x04	; 4
    22fc:	6a 95       	dec	r22
    22fe:	f1 f7       	brne	.-4      	; 0x22fc <_ZN13OrangutanTime17delayMicrosecondsEj+0x4>
    2300:	6f 91       	pop	r22
    2302:	01 97       	sbiw	r24, 0x01	; 1
    2304:	c9 f7       	brne	.-14     	; 0x22f8 <_ZN13OrangutanTime17delayMicrosecondsEj>
    2306:	08 95       	ret

00002308 <__vector_11>:
    2308:	2f 92       	push	r2
    230a:	8f 93       	push	r24
    230c:	9f 93       	push	r25
    230e:	2f b6       	in	r2, 0x3f	; 63
    2310:	80 91 a9 03 	lds	r24, 0x03A9
    2314:	90 91 aa 03 	lds	r25, 0x03AA
    2318:	01 96       	adiw	r24, 0x01	; 1
    231a:	80 93 a9 03 	sts	0x03A9, r24
    231e:	90 93 aa 03 	sts	0x03AA, r25
    2322:	90 e0       	ldi	r25, 0x00	; 0
    2324:	80 91 ab 03 	lds	r24, 0x03AB
    2328:	89 1f       	adc	r24, r25
    232a:	80 93 ab 03 	sts	0x03AB, r24
    232e:	90 91 b1 03 	lds	r25, 0x03B1
    2332:	9c 5f       	subi	r25, 0xFC	; 252
    2334:	90 93 b1 03 	sts	0x03B1, r25
    2338:	80 91 b0 03 	lds	r24, 0x03B0
    233c:	80 51       	subi	r24, 0x10	; 16
    233e:	97 42       	sbci	r25, 0x27	; 39
    2340:	c0 f0       	brcs	.+48     	; 0x2372 <end>
    2342:	90 93 b1 03 	sts	0x03B1, r25
    2346:	80 93 b0 03 	sts	0x03B0, r24
    234a:	80 91 ac 03 	lds	r24, 0x03AC
    234e:	90 91 ad 03 	lds	r25, 0x03AD
    2352:	01 96       	adiw	r24, 0x01	; 1
    2354:	80 93 ac 03 	sts	0x03AC, r24
    2358:	90 93 ad 03 	sts	0x03AD, r25
    235c:	90 e0       	ldi	r25, 0x00	; 0
    235e:	80 91 ae 03 	lds	r24, 0x03AE
    2362:	89 1f       	adc	r24, r25
    2364:	80 93 ae 03 	sts	0x03AE, r24
    2368:	80 91 af 03 	lds	r24, 0x03AF
    236c:	89 1f       	adc	r24, r25
    236e:	80 93 af 03 	sts	0x03AF, r24

00002372 <end>:
    2372:	2f be       	out	0x3f, r2	; 63
    2374:	9f 91       	pop	r25
    2376:	8f 91       	pop	r24
    2378:	2f 90       	pop	r2
    237a:	18 95       	reti

0000237c <_ZN13OrangutanTime17delayMillisecondsEj>:
    237c:	cf 93       	push	r28
    237e:	df 93       	push	r29
    2380:	ec 01       	movw	r28, r24
    2382:	04 c0       	rjmp	.+8      	; 0x238c <_ZN13OrangutanTime17delayMillisecondsEj+0x10>
    2384:	88 ee       	ldi	r24, 0xE8	; 232
    2386:	93 e0       	ldi	r25, 0x03	; 3
    2388:	b7 df       	rcall	.-146    	; 0x22f8 <_ZN13OrangutanTime17delayMicrosecondsEj>
    238a:	21 97       	sbiw	r28, 0x01	; 1
    238c:	20 97       	sbiw	r28, 0x00	; 0
    238e:	d1 f7       	brne	.-12     	; 0x2384 <_ZN13OrangutanTime17delayMillisecondsEj+0x8>
    2390:	df 91       	pop	r29
    2392:	cf 91       	pop	r28
    2394:	08 95       	ret

00002396 <delay_ms>:
    2396:	f2 cf       	rjmp	.-28     	; 0x237c <_ZN13OrangutanTime17delayMillisecondsEj>
    2398:	08 95       	ret

0000239a <_ZN12OrangutanSVP11getNextByteEv>:
    239a:	8f ef       	ldi	r24, 0xFF	; 255
    239c:	64 e0       	ldi	r22, 0x04	; 4
    239e:	43 c0       	rjmp	.+134    	; 0x2426 <_ZN18OrangutanSPIMaster16transmitAndDelayEhh>

000023a0 <_ZN12OrangutanSVP15serialReadStartEv>:
    23a0:	83 e8       	ldi	r24, 0x83	; 131
    23a2:	67 e0       	ldi	r22, 0x07	; 7
    23a4:	40 d0       	rcall	.+128    	; 0x2426 <_ZN18OrangutanSPIMaster16transmitAndDelayEhh>
    23a6:	f9 cf       	rjmp	.-14     	; 0x239a <_ZN12OrangutanSVP11getNextByteEv>

000023a8 <_ZN12OrangutanSVP17serialSendIfReadyEc>:
    23a8:	1f 93       	push	r17
    23aa:	18 2f       	mov	r17, r24
    23ac:	98 2f       	mov	r25, r24
    23ae:	90 95       	com	r25
    23b0:	99 1f       	adc	r25, r25
    23b2:	99 27       	eor	r25, r25
    23b4:	99 1f       	adc	r25, r25
    23b6:	85 e8       	ldi	r24, 0x85	; 133
    23b8:	89 1b       	sub	r24, r25
    23ba:	65 e0       	ldi	r22, 0x05	; 5
    23bc:	34 d0       	rcall	.+104    	; 0x2426 <_ZN18OrangutanSPIMaster16transmitAndDelayEhh>
    23be:	81 2f       	mov	r24, r17
    23c0:	8f 77       	andi	r24, 0x7F	; 127
    23c2:	65 e0       	ldi	r22, 0x05	; 5
    23c4:	30 d0       	rcall	.+96     	; 0x2426 <_ZN18OrangutanSPIMaster16transmitAndDelayEhh>
    23c6:	1f 91       	pop	r17
    23c8:	08 95       	ret

000023ca <delayMicroseconds>:
    23ca:	6f 93       	push	r22
    23cc:	64 e0       	ldi	r22, 0x04	; 4
    23ce:	6a 95       	dec	r22
    23d0:	f1 f7       	brne	.-4      	; 0x23ce <delayMicroseconds+0x4>
    23d2:	6f 91       	pop	r22
    23d4:	01 97       	sbiw	r24, 0x01	; 1
    23d6:	c9 f7       	brne	.-14     	; 0x23ca <delayMicroseconds>
    23d8:	08 95       	ret

000023da <_ZN18OrangutanSPIMaster4initEhh>:
    23da:	a1 e0       	ldi	r26, 0x01	; 1
    23dc:	b0 e0       	ldi	r27, 0x00	; 0
    23de:	e3 ef       	ldi	r30, 0xF3	; 243
    23e0:	f1 e1       	ldi	r31, 0x11	; 17
    23e2:	0c 94 cf 1c 	jmp	0x399e	; 0x399e <__prologue_saves__+0x1e>
    23e6:	18 2f       	mov	r17, r24
    23e8:	24 99       	sbic	0x04, 4	; 4
    23ea:	08 c0       	rjmp	.+16     	; 0x23fc <_ZN18OrangutanSPIMaster4initEhh+0x22>
    23ec:	2c 99       	sbic	0x05, 4	; 5
    23ee:	06 c0       	rjmp	.+12     	; 0x23fc <_ZN18OrangutanSPIMaster4initEhh+0x22>
    23f0:	2c 9a       	sbi	0x05, 4	; 5
    23f2:	8e e1       	ldi	r24, 0x1E	; 30
    23f4:	90 e0       	ldi	r25, 0x00	; 0
    23f6:	69 83       	std	Y+1, r22	; 0x01
    23f8:	e8 df       	rcall	.-48     	; 0x23ca <delayMicroseconds>
    23fa:	69 81       	ldd	r22, Y+1	; 0x01
    23fc:	84 b1       	in	r24, 0x04	; 4
    23fe:	80 6a       	ori	r24, 0xA0	; 160
    2400:	84 b9       	out	0x04, r24	; 4
    2402:	26 98       	cbi	0x04, 6	; 4
    2404:	81 2f       	mov	r24, r17
    2406:	83 70       	andi	r24, 0x03	; 3
    2408:	80 65       	ori	r24, 0x50	; 80
    240a:	6c 7a       	andi	r22, 0xAC	; 172
    240c:	86 2b       	or	r24, r22
    240e:	8c bd       	out	0x2c, r24	; 44
    2410:	81 e0       	ldi	r24, 0x01	; 1
    2412:	12 ff       	sbrs	r17, 2
    2414:	80 e0       	ldi	r24, 0x00	; 0
    2416:	8d bd       	out	0x2d, r24	; 45
    2418:	81 e0       	ldi	r24, 0x01	; 1
    241a:	90 e0       	ldi	r25, 0x00	; 0
    241c:	af df       	rcall	.-162    	; 0x237c <_ZN13OrangutanTime17delayMillisecondsEj>
    241e:	21 96       	adiw	r28, 0x01	; 1
    2420:	e3 e0       	ldi	r30, 0x03	; 3
    2422:	0c 94 eb 1c 	jmp	0x39d6	; 0x39d6 <__epilogue_restores__+0x1e>

00002426 <_ZN18OrangutanSPIMaster16transmitAndDelayEhh>:
    2426:	0f 93       	push	r16
    2428:	1f 93       	push	r17
    242a:	08 2f       	mov	r16, r24
    242c:	16 2f       	mov	r17, r22
    242e:	0c b4       	in	r0, 0x2c	; 44
    2430:	06 fc       	sbrc	r0, 6
    2432:	03 c0       	rjmp	.+6      	; 0x243a <_ZN18OrangutanSPIMaster16transmitAndDelayEhh+0x14>
    2434:	80 e0       	ldi	r24, 0x00	; 0
    2436:	64 e0       	ldi	r22, 0x04	; 4
    2438:	d0 df       	rcall	.-96     	; 0x23da <_ZN18OrangutanSPIMaster4initEhh>
    243a:	0c b4       	in	r0, 0x2c	; 44
    243c:	04 fc       	sbrc	r0, 4
    243e:	03 c0       	rjmp	.+6      	; 0x2446 <_ZN18OrangutanSPIMaster16transmitAndDelayEhh+0x20>
    2440:	8c b5       	in	r24, 0x2c	; 44
    2442:	80 61       	ori	r24, 0x10	; 16
    2444:	8c bd       	out	0x2c, r24	; 44
    2446:	0e bd       	out	0x2e, r16	; 46
    2448:	03 c0       	rjmp	.+6      	; 0x2450 <_ZN18OrangutanSPIMaster16transmitAndDelayEhh+0x2a>
    244a:	0c b4       	in	r0, 0x2c	; 44
    244c:	04 fe       	sbrs	r0, 4
    244e:	0a c0       	rjmp	.+20     	; 0x2464 <_ZN18OrangutanSPIMaster16transmitAndDelayEhh+0x3e>
    2450:	0d b4       	in	r0, 0x2d	; 45
    2452:	07 fe       	sbrs	r0, 7
    2454:	fa cf       	rjmp	.-12     	; 0x244a <_ZN18OrangutanSPIMaster16transmitAndDelayEhh+0x24>
    2456:	11 23       	and	r17, r17
    2458:	19 f0       	breq	.+6      	; 0x2460 <_ZN18OrangutanSPIMaster16transmitAndDelayEhh+0x3a>
    245a:	81 2f       	mov	r24, r17
    245c:	90 e0       	ldi	r25, 0x00	; 0
    245e:	b5 df       	rcall	.-150    	; 0x23ca <delayMicroseconds>
    2460:	8e b5       	in	r24, 0x2e	; 46
    2462:	01 c0       	rjmp	.+2      	; 0x2466 <_ZN18OrangutanSPIMaster16transmitAndDelayEhh+0x40>
    2464:	80 e0       	ldi	r24, 0x00	; 0
    2466:	1f 91       	pop	r17
    2468:	0f 91       	pop	r16
    246a:	08 95       	ret

0000246c <__subsf3>:
    246c:	50 58       	subi	r21, 0x80	; 128

0000246e <__addsf3>:
    246e:	bb 27       	eor	r27, r27
    2470:	aa 27       	eor	r26, r26
    2472:	0e d0       	rcall	.+28     	; 0x2490 <__addsf3x>
    2474:	75 c1       	rjmp	.+746    	; 0x2760 <__fp_round>
    2476:	66 d1       	rcall	.+716    	; 0x2744 <__fp_pscA>
    2478:	30 f0       	brcs	.+12     	; 0x2486 <__addsf3+0x18>
    247a:	6b d1       	rcall	.+726    	; 0x2752 <__fp_pscB>
    247c:	20 f0       	brcs	.+8      	; 0x2486 <__addsf3+0x18>
    247e:	31 f4       	brne	.+12     	; 0x248c <__addsf3+0x1e>
    2480:	9f 3f       	cpi	r25, 0xFF	; 255
    2482:	11 f4       	brne	.+4      	; 0x2488 <__addsf3+0x1a>
    2484:	1e f4       	brtc	.+6      	; 0x248c <__addsf3+0x1e>
    2486:	5b c1       	rjmp	.+694    	; 0x273e <__fp_nan>
    2488:	0e f4       	brtc	.+2      	; 0x248c <__addsf3+0x1e>
    248a:	e0 95       	com	r30
    248c:	e7 fb       	bst	r30, 7
    248e:	51 c1       	rjmp	.+674    	; 0x2732 <__fp_inf>

00002490 <__addsf3x>:
    2490:	e9 2f       	mov	r30, r25
    2492:	77 d1       	rcall	.+750    	; 0x2782 <__fp_split3>
    2494:	80 f3       	brcs	.-32     	; 0x2476 <__addsf3+0x8>
    2496:	ba 17       	cp	r27, r26
    2498:	62 07       	cpc	r22, r18
    249a:	73 07       	cpc	r23, r19
    249c:	84 07       	cpc	r24, r20
    249e:	95 07       	cpc	r25, r21
    24a0:	18 f0       	brcs	.+6      	; 0x24a8 <__addsf3x+0x18>
    24a2:	71 f4       	brne	.+28     	; 0x24c0 <__addsf3x+0x30>
    24a4:	9e f5       	brtc	.+102    	; 0x250c <__addsf3x+0x7c>
    24a6:	8f c1       	rjmp	.+798    	; 0x27c6 <__fp_zero>
    24a8:	0e f4       	brtc	.+2      	; 0x24ac <__addsf3x+0x1c>
    24aa:	e0 95       	com	r30
    24ac:	0b 2e       	mov	r0, r27
    24ae:	ba 2f       	mov	r27, r26
    24b0:	a0 2d       	mov	r26, r0
    24b2:	0b 01       	movw	r0, r22
    24b4:	b9 01       	movw	r22, r18
    24b6:	90 01       	movw	r18, r0
    24b8:	0c 01       	movw	r0, r24
    24ba:	ca 01       	movw	r24, r20
    24bc:	a0 01       	movw	r20, r0
    24be:	11 24       	eor	r1, r1
    24c0:	ff 27       	eor	r31, r31
    24c2:	59 1b       	sub	r21, r25
    24c4:	99 f0       	breq	.+38     	; 0x24ec <__addsf3x+0x5c>
    24c6:	59 3f       	cpi	r21, 0xF9	; 249
    24c8:	50 f4       	brcc	.+20     	; 0x24de <__addsf3x+0x4e>
    24ca:	50 3e       	cpi	r21, 0xE0	; 224
    24cc:	68 f1       	brcs	.+90     	; 0x2528 <__addsf3x+0x98>
    24ce:	1a 16       	cp	r1, r26
    24d0:	f0 40       	sbci	r31, 0x00	; 0
    24d2:	a2 2f       	mov	r26, r18
    24d4:	23 2f       	mov	r18, r19
    24d6:	34 2f       	mov	r19, r20
    24d8:	44 27       	eor	r20, r20
    24da:	58 5f       	subi	r21, 0xF8	; 248
    24dc:	f3 cf       	rjmp	.-26     	; 0x24c4 <__addsf3x+0x34>
    24de:	46 95       	lsr	r20
    24e0:	37 95       	ror	r19
    24e2:	27 95       	ror	r18
    24e4:	a7 95       	ror	r26
    24e6:	f0 40       	sbci	r31, 0x00	; 0
    24e8:	53 95       	inc	r21
    24ea:	c9 f7       	brne	.-14     	; 0x24de <__addsf3x+0x4e>
    24ec:	7e f4       	brtc	.+30     	; 0x250c <__addsf3x+0x7c>
    24ee:	1f 16       	cp	r1, r31
    24f0:	ba 0b       	sbc	r27, r26
    24f2:	62 0b       	sbc	r22, r18
    24f4:	73 0b       	sbc	r23, r19
    24f6:	84 0b       	sbc	r24, r20
    24f8:	ba f0       	brmi	.+46     	; 0x2528 <__addsf3x+0x98>
    24fa:	91 50       	subi	r25, 0x01	; 1
    24fc:	a1 f0       	breq	.+40     	; 0x2526 <__addsf3x+0x96>
    24fe:	ff 0f       	add	r31, r31
    2500:	bb 1f       	adc	r27, r27
    2502:	66 1f       	adc	r22, r22
    2504:	77 1f       	adc	r23, r23
    2506:	88 1f       	adc	r24, r24
    2508:	c2 f7       	brpl	.-16     	; 0x24fa <__addsf3x+0x6a>
    250a:	0e c0       	rjmp	.+28     	; 0x2528 <__addsf3x+0x98>
    250c:	ba 0f       	add	r27, r26
    250e:	62 1f       	adc	r22, r18
    2510:	73 1f       	adc	r23, r19
    2512:	84 1f       	adc	r24, r20
    2514:	48 f4       	brcc	.+18     	; 0x2528 <__addsf3x+0x98>
    2516:	87 95       	ror	r24
    2518:	77 95       	ror	r23
    251a:	67 95       	ror	r22
    251c:	b7 95       	ror	r27
    251e:	f7 95       	ror	r31
    2520:	9e 3f       	cpi	r25, 0xFE	; 254
    2522:	08 f0       	brcs	.+2      	; 0x2526 <__addsf3x+0x96>
    2524:	b3 cf       	rjmp	.-154    	; 0x248c <__addsf3+0x1e>
    2526:	93 95       	inc	r25
    2528:	88 0f       	add	r24, r24
    252a:	08 f0       	brcs	.+2      	; 0x252e <__addsf3x+0x9e>
    252c:	99 27       	eor	r25, r25
    252e:	ee 0f       	add	r30, r30
    2530:	97 95       	ror	r25
    2532:	87 95       	ror	r24
    2534:	08 95       	ret

00002536 <__cmpsf2>:
    2536:	d9 d0       	rcall	.+434    	; 0x26ea <__fp_cmp>
    2538:	08 f4       	brcc	.+2      	; 0x253c <__cmpsf2+0x6>
    253a:	81 e0       	ldi	r24, 0x01	; 1
    253c:	08 95       	ret

0000253e <__divsf3>:
    253e:	0c d0       	rcall	.+24     	; 0x2558 <__divsf3x>
    2540:	0f c1       	rjmp	.+542    	; 0x2760 <__fp_round>
    2542:	07 d1       	rcall	.+526    	; 0x2752 <__fp_pscB>
    2544:	40 f0       	brcs	.+16     	; 0x2556 <__divsf3+0x18>
    2546:	fe d0       	rcall	.+508    	; 0x2744 <__fp_pscA>
    2548:	30 f0       	brcs	.+12     	; 0x2556 <__divsf3+0x18>
    254a:	21 f4       	brne	.+8      	; 0x2554 <__divsf3+0x16>
    254c:	5f 3f       	cpi	r21, 0xFF	; 255
    254e:	19 f0       	breq	.+6      	; 0x2556 <__divsf3+0x18>
    2550:	f0 c0       	rjmp	.+480    	; 0x2732 <__fp_inf>
    2552:	51 11       	cpse	r21, r1
    2554:	39 c1       	rjmp	.+626    	; 0x27c8 <__fp_szero>
    2556:	f3 c0       	rjmp	.+486    	; 0x273e <__fp_nan>

00002558 <__divsf3x>:
    2558:	14 d1       	rcall	.+552    	; 0x2782 <__fp_split3>
    255a:	98 f3       	brcs	.-26     	; 0x2542 <__divsf3+0x4>

0000255c <__divsf3_pse>:
    255c:	99 23       	and	r25, r25
    255e:	c9 f3       	breq	.-14     	; 0x2552 <__divsf3+0x14>
    2560:	55 23       	and	r21, r21
    2562:	b1 f3       	breq	.-20     	; 0x2550 <__divsf3+0x12>
    2564:	95 1b       	sub	r25, r21
    2566:	55 0b       	sbc	r21, r21
    2568:	bb 27       	eor	r27, r27
    256a:	aa 27       	eor	r26, r26
    256c:	62 17       	cp	r22, r18
    256e:	73 07       	cpc	r23, r19
    2570:	84 07       	cpc	r24, r20
    2572:	38 f0       	brcs	.+14     	; 0x2582 <__divsf3_pse+0x26>
    2574:	9f 5f       	subi	r25, 0xFF	; 255
    2576:	5f 4f       	sbci	r21, 0xFF	; 255
    2578:	22 0f       	add	r18, r18
    257a:	33 1f       	adc	r19, r19
    257c:	44 1f       	adc	r20, r20
    257e:	aa 1f       	adc	r26, r26
    2580:	a9 f3       	breq	.-22     	; 0x256c <__divsf3_pse+0x10>
    2582:	33 d0       	rcall	.+102    	; 0x25ea <__divsf3_pse+0x8e>
    2584:	0e 2e       	mov	r0, r30
    2586:	3a f0       	brmi	.+14     	; 0x2596 <__divsf3_pse+0x3a>
    2588:	e0 e8       	ldi	r30, 0x80	; 128
    258a:	30 d0       	rcall	.+96     	; 0x25ec <__divsf3_pse+0x90>
    258c:	91 50       	subi	r25, 0x01	; 1
    258e:	50 40       	sbci	r21, 0x00	; 0
    2590:	e6 95       	lsr	r30
    2592:	00 1c       	adc	r0, r0
    2594:	ca f7       	brpl	.-14     	; 0x2588 <__divsf3_pse+0x2c>
    2596:	29 d0       	rcall	.+82     	; 0x25ea <__divsf3_pse+0x8e>
    2598:	fe 2f       	mov	r31, r30
    259a:	27 d0       	rcall	.+78     	; 0x25ea <__divsf3_pse+0x8e>
    259c:	66 0f       	add	r22, r22
    259e:	77 1f       	adc	r23, r23
    25a0:	88 1f       	adc	r24, r24
    25a2:	bb 1f       	adc	r27, r27
    25a4:	26 17       	cp	r18, r22
    25a6:	37 07       	cpc	r19, r23
    25a8:	48 07       	cpc	r20, r24
    25aa:	ab 07       	cpc	r26, r27
    25ac:	b0 e8       	ldi	r27, 0x80	; 128
    25ae:	09 f0       	breq	.+2      	; 0x25b2 <__divsf3_pse+0x56>
    25b0:	bb 0b       	sbc	r27, r27
    25b2:	80 2d       	mov	r24, r0
    25b4:	bf 01       	movw	r22, r30
    25b6:	ff 27       	eor	r31, r31
    25b8:	93 58       	subi	r25, 0x83	; 131
    25ba:	5f 4f       	sbci	r21, 0xFF	; 255
    25bc:	2a f0       	brmi	.+10     	; 0x25c8 <__divsf3_pse+0x6c>
    25be:	9e 3f       	cpi	r25, 0xFE	; 254
    25c0:	51 05       	cpc	r21, r1
    25c2:	68 f0       	brcs	.+26     	; 0x25de <__divsf3_pse+0x82>
    25c4:	b6 c0       	rjmp	.+364    	; 0x2732 <__fp_inf>
    25c6:	00 c1       	rjmp	.+512    	; 0x27c8 <__fp_szero>
    25c8:	5f 3f       	cpi	r21, 0xFF	; 255
    25ca:	ec f3       	brlt	.-6      	; 0x25c6 <__divsf3_pse+0x6a>
    25cc:	98 3e       	cpi	r25, 0xE8	; 232
    25ce:	dc f3       	brlt	.-10     	; 0x25c6 <__divsf3_pse+0x6a>
    25d0:	86 95       	lsr	r24
    25d2:	77 95       	ror	r23
    25d4:	67 95       	ror	r22
    25d6:	b7 95       	ror	r27
    25d8:	f7 95       	ror	r31
    25da:	9f 5f       	subi	r25, 0xFF	; 255
    25dc:	c9 f7       	brne	.-14     	; 0x25d0 <__divsf3_pse+0x74>
    25de:	88 0f       	add	r24, r24
    25e0:	91 1d       	adc	r25, r1
    25e2:	96 95       	lsr	r25
    25e4:	87 95       	ror	r24
    25e6:	97 f9       	bld	r25, 7
    25e8:	08 95       	ret
    25ea:	e1 e0       	ldi	r30, 0x01	; 1
    25ec:	66 0f       	add	r22, r22
    25ee:	77 1f       	adc	r23, r23
    25f0:	88 1f       	adc	r24, r24
    25f2:	bb 1f       	adc	r27, r27
    25f4:	62 17       	cp	r22, r18
    25f6:	73 07       	cpc	r23, r19
    25f8:	84 07       	cpc	r24, r20
    25fa:	ba 07       	cpc	r27, r26
    25fc:	20 f0       	brcs	.+8      	; 0x2606 <__divsf3_pse+0xaa>
    25fe:	62 1b       	sub	r22, r18
    2600:	73 0b       	sbc	r23, r19
    2602:	84 0b       	sbc	r24, r20
    2604:	ba 0b       	sbc	r27, r26
    2606:	ee 1f       	adc	r30, r30
    2608:	88 f7       	brcc	.-30     	; 0x25ec <__divsf3_pse+0x90>
    260a:	e0 95       	com	r30
    260c:	08 95       	ret

0000260e <__fixsfsi>:
    260e:	04 d0       	rcall	.+8      	; 0x2618 <__fixunssfsi>
    2610:	68 94       	set
    2612:	b1 11       	cpse	r27, r1
    2614:	d9 c0       	rjmp	.+434    	; 0x27c8 <__fp_szero>
    2616:	08 95       	ret

00002618 <__fixunssfsi>:
    2618:	bc d0       	rcall	.+376    	; 0x2792 <__fp_splitA>
    261a:	88 f0       	brcs	.+34     	; 0x263e <__fixunssfsi+0x26>
    261c:	9f 57       	subi	r25, 0x7F	; 127
    261e:	90 f0       	brcs	.+36     	; 0x2644 <__fixunssfsi+0x2c>
    2620:	b9 2f       	mov	r27, r25
    2622:	99 27       	eor	r25, r25
    2624:	b7 51       	subi	r27, 0x17	; 23
    2626:	a0 f0       	brcs	.+40     	; 0x2650 <__fixunssfsi+0x38>
    2628:	d1 f0       	breq	.+52     	; 0x265e <__fixunssfsi+0x46>
    262a:	66 0f       	add	r22, r22
    262c:	77 1f       	adc	r23, r23
    262e:	88 1f       	adc	r24, r24
    2630:	99 1f       	adc	r25, r25
    2632:	1a f0       	brmi	.+6      	; 0x263a <__fixunssfsi+0x22>
    2634:	ba 95       	dec	r27
    2636:	c9 f7       	brne	.-14     	; 0x262a <__fixunssfsi+0x12>
    2638:	12 c0       	rjmp	.+36     	; 0x265e <__fixunssfsi+0x46>
    263a:	b1 30       	cpi	r27, 0x01	; 1
    263c:	81 f0       	breq	.+32     	; 0x265e <__fixunssfsi+0x46>
    263e:	c3 d0       	rcall	.+390    	; 0x27c6 <__fp_zero>
    2640:	b1 e0       	ldi	r27, 0x01	; 1
    2642:	08 95       	ret
    2644:	c0 c0       	rjmp	.+384    	; 0x27c6 <__fp_zero>
    2646:	67 2f       	mov	r22, r23
    2648:	78 2f       	mov	r23, r24
    264a:	88 27       	eor	r24, r24
    264c:	b8 5f       	subi	r27, 0xF8	; 248
    264e:	39 f0       	breq	.+14     	; 0x265e <__fixunssfsi+0x46>
    2650:	b9 3f       	cpi	r27, 0xF9	; 249
    2652:	cc f3       	brlt	.-14     	; 0x2646 <__fixunssfsi+0x2e>
    2654:	86 95       	lsr	r24
    2656:	77 95       	ror	r23
    2658:	67 95       	ror	r22
    265a:	b3 95       	inc	r27
    265c:	d9 f7       	brne	.-10     	; 0x2654 <__fixunssfsi+0x3c>
    265e:	3e f4       	brtc	.+14     	; 0x266e <__fixunssfsi+0x56>
    2660:	90 95       	com	r25
    2662:	80 95       	com	r24
    2664:	70 95       	com	r23
    2666:	61 95       	neg	r22
    2668:	7f 4f       	sbci	r23, 0xFF	; 255
    266a:	8f 4f       	sbci	r24, 0xFF	; 255
    266c:	9f 4f       	sbci	r25, 0xFF	; 255
    266e:	08 95       	ret

00002670 <__floatunsisf>:
    2670:	e8 94       	clt
    2672:	09 c0       	rjmp	.+18     	; 0x2686 <__floatsisf+0x12>

00002674 <__floatsisf>:
    2674:	97 fb       	bst	r25, 7
    2676:	3e f4       	brtc	.+14     	; 0x2686 <__floatsisf+0x12>
    2678:	90 95       	com	r25
    267a:	80 95       	com	r24
    267c:	70 95       	com	r23
    267e:	61 95       	neg	r22
    2680:	7f 4f       	sbci	r23, 0xFF	; 255
    2682:	8f 4f       	sbci	r24, 0xFF	; 255
    2684:	9f 4f       	sbci	r25, 0xFF	; 255
    2686:	99 23       	and	r25, r25
    2688:	a9 f0       	breq	.+42     	; 0x26b4 <__floatsisf+0x40>
    268a:	f9 2f       	mov	r31, r25
    268c:	96 e9       	ldi	r25, 0x96	; 150
    268e:	bb 27       	eor	r27, r27
    2690:	93 95       	inc	r25
    2692:	f6 95       	lsr	r31
    2694:	87 95       	ror	r24
    2696:	77 95       	ror	r23
    2698:	67 95       	ror	r22
    269a:	b7 95       	ror	r27
    269c:	f1 11       	cpse	r31, r1
    269e:	f8 cf       	rjmp	.-16     	; 0x2690 <__floatsisf+0x1c>
    26a0:	fa f4       	brpl	.+62     	; 0x26e0 <__floatsisf+0x6c>
    26a2:	bb 0f       	add	r27, r27
    26a4:	11 f4       	brne	.+4      	; 0x26aa <__floatsisf+0x36>
    26a6:	60 ff       	sbrs	r22, 0
    26a8:	1b c0       	rjmp	.+54     	; 0x26e0 <__floatsisf+0x6c>
    26aa:	6f 5f       	subi	r22, 0xFF	; 255
    26ac:	7f 4f       	sbci	r23, 0xFF	; 255
    26ae:	8f 4f       	sbci	r24, 0xFF	; 255
    26b0:	9f 4f       	sbci	r25, 0xFF	; 255
    26b2:	16 c0       	rjmp	.+44     	; 0x26e0 <__floatsisf+0x6c>
    26b4:	88 23       	and	r24, r24
    26b6:	11 f0       	breq	.+4      	; 0x26bc <__floatsisf+0x48>
    26b8:	96 e9       	ldi	r25, 0x96	; 150
    26ba:	11 c0       	rjmp	.+34     	; 0x26de <__floatsisf+0x6a>
    26bc:	77 23       	and	r23, r23
    26be:	21 f0       	breq	.+8      	; 0x26c8 <__floatsisf+0x54>
    26c0:	9e e8       	ldi	r25, 0x8E	; 142
    26c2:	87 2f       	mov	r24, r23
    26c4:	76 2f       	mov	r23, r22
    26c6:	05 c0       	rjmp	.+10     	; 0x26d2 <__floatsisf+0x5e>
    26c8:	66 23       	and	r22, r22
    26ca:	71 f0       	breq	.+28     	; 0x26e8 <__floatsisf+0x74>
    26cc:	96 e8       	ldi	r25, 0x86	; 134
    26ce:	86 2f       	mov	r24, r22
    26d0:	70 e0       	ldi	r23, 0x00	; 0
    26d2:	60 e0       	ldi	r22, 0x00	; 0
    26d4:	2a f0       	brmi	.+10     	; 0x26e0 <__floatsisf+0x6c>
    26d6:	9a 95       	dec	r25
    26d8:	66 0f       	add	r22, r22
    26da:	77 1f       	adc	r23, r23
    26dc:	88 1f       	adc	r24, r24
    26de:	da f7       	brpl	.-10     	; 0x26d6 <__floatsisf+0x62>
    26e0:	88 0f       	add	r24, r24
    26e2:	96 95       	lsr	r25
    26e4:	87 95       	ror	r24
    26e6:	97 f9       	bld	r25, 7
    26e8:	08 95       	ret

000026ea <__fp_cmp>:
    26ea:	99 0f       	add	r25, r25
    26ec:	00 08       	sbc	r0, r0
    26ee:	55 0f       	add	r21, r21
    26f0:	aa 0b       	sbc	r26, r26
    26f2:	e0 e8       	ldi	r30, 0x80	; 128
    26f4:	fe ef       	ldi	r31, 0xFE	; 254
    26f6:	16 16       	cp	r1, r22
    26f8:	17 06       	cpc	r1, r23
    26fa:	e8 07       	cpc	r30, r24
    26fc:	f9 07       	cpc	r31, r25
    26fe:	c0 f0       	brcs	.+48     	; 0x2730 <__fp_cmp+0x46>
    2700:	12 16       	cp	r1, r18
    2702:	13 06       	cpc	r1, r19
    2704:	e4 07       	cpc	r30, r20
    2706:	f5 07       	cpc	r31, r21
    2708:	98 f0       	brcs	.+38     	; 0x2730 <__fp_cmp+0x46>
    270a:	62 1b       	sub	r22, r18
    270c:	73 0b       	sbc	r23, r19
    270e:	84 0b       	sbc	r24, r20
    2710:	95 0b       	sbc	r25, r21
    2712:	39 f4       	brne	.+14     	; 0x2722 <__fp_cmp+0x38>
    2714:	0a 26       	eor	r0, r26
    2716:	61 f0       	breq	.+24     	; 0x2730 <__fp_cmp+0x46>
    2718:	23 2b       	or	r18, r19
    271a:	24 2b       	or	r18, r20
    271c:	25 2b       	or	r18, r21
    271e:	21 f4       	brne	.+8      	; 0x2728 <__fp_cmp+0x3e>
    2720:	08 95       	ret
    2722:	0a 26       	eor	r0, r26
    2724:	09 f4       	brne	.+2      	; 0x2728 <__fp_cmp+0x3e>
    2726:	a1 40       	sbci	r26, 0x01	; 1
    2728:	a6 95       	lsr	r26
    272a:	8f ef       	ldi	r24, 0xFF	; 255
    272c:	81 1d       	adc	r24, r1
    272e:	81 1d       	adc	r24, r1
    2730:	08 95       	ret

00002732 <__fp_inf>:
    2732:	97 f9       	bld	r25, 7
    2734:	9f 67       	ori	r25, 0x7F	; 127
    2736:	80 e8       	ldi	r24, 0x80	; 128
    2738:	70 e0       	ldi	r23, 0x00	; 0
    273a:	60 e0       	ldi	r22, 0x00	; 0
    273c:	08 95       	ret

0000273e <__fp_nan>:
    273e:	9f ef       	ldi	r25, 0xFF	; 255
    2740:	80 ec       	ldi	r24, 0xC0	; 192
    2742:	08 95       	ret

00002744 <__fp_pscA>:
    2744:	00 24       	eor	r0, r0
    2746:	0a 94       	dec	r0
    2748:	16 16       	cp	r1, r22
    274a:	17 06       	cpc	r1, r23
    274c:	18 06       	cpc	r1, r24
    274e:	09 06       	cpc	r0, r25
    2750:	08 95       	ret

00002752 <__fp_pscB>:
    2752:	00 24       	eor	r0, r0
    2754:	0a 94       	dec	r0
    2756:	12 16       	cp	r1, r18
    2758:	13 06       	cpc	r1, r19
    275a:	14 06       	cpc	r1, r20
    275c:	05 06       	cpc	r0, r21
    275e:	08 95       	ret

00002760 <__fp_round>:
    2760:	09 2e       	mov	r0, r25
    2762:	03 94       	inc	r0
    2764:	00 0c       	add	r0, r0
    2766:	11 f4       	brne	.+4      	; 0x276c <__fp_round+0xc>
    2768:	88 23       	and	r24, r24
    276a:	52 f0       	brmi	.+20     	; 0x2780 <__fp_round+0x20>
    276c:	bb 0f       	add	r27, r27
    276e:	40 f4       	brcc	.+16     	; 0x2780 <__fp_round+0x20>
    2770:	bf 2b       	or	r27, r31
    2772:	11 f4       	brne	.+4      	; 0x2778 <__fp_round+0x18>
    2774:	60 ff       	sbrs	r22, 0
    2776:	04 c0       	rjmp	.+8      	; 0x2780 <__fp_round+0x20>
    2778:	6f 5f       	subi	r22, 0xFF	; 255
    277a:	7f 4f       	sbci	r23, 0xFF	; 255
    277c:	8f 4f       	sbci	r24, 0xFF	; 255
    277e:	9f 4f       	sbci	r25, 0xFF	; 255
    2780:	08 95       	ret

00002782 <__fp_split3>:
    2782:	57 fd       	sbrc	r21, 7
    2784:	90 58       	subi	r25, 0x80	; 128
    2786:	44 0f       	add	r20, r20
    2788:	55 1f       	adc	r21, r21
    278a:	59 f0       	breq	.+22     	; 0x27a2 <__fp_splitA+0x10>
    278c:	5f 3f       	cpi	r21, 0xFF	; 255
    278e:	71 f0       	breq	.+28     	; 0x27ac <__fp_splitA+0x1a>
    2790:	47 95       	ror	r20

00002792 <__fp_splitA>:
    2792:	88 0f       	add	r24, r24
    2794:	97 fb       	bst	r25, 7
    2796:	99 1f       	adc	r25, r25
    2798:	61 f0       	breq	.+24     	; 0x27b2 <__fp_splitA+0x20>
    279a:	9f 3f       	cpi	r25, 0xFF	; 255
    279c:	79 f0       	breq	.+30     	; 0x27bc <__fp_splitA+0x2a>
    279e:	87 95       	ror	r24
    27a0:	08 95       	ret
    27a2:	12 16       	cp	r1, r18
    27a4:	13 06       	cpc	r1, r19
    27a6:	14 06       	cpc	r1, r20
    27a8:	55 1f       	adc	r21, r21
    27aa:	f2 cf       	rjmp	.-28     	; 0x2790 <__fp_split3+0xe>
    27ac:	46 95       	lsr	r20
    27ae:	f1 df       	rcall	.-30     	; 0x2792 <__fp_splitA>
    27b0:	08 c0       	rjmp	.+16     	; 0x27c2 <__fp_splitA+0x30>
    27b2:	16 16       	cp	r1, r22
    27b4:	17 06       	cpc	r1, r23
    27b6:	18 06       	cpc	r1, r24
    27b8:	99 1f       	adc	r25, r25
    27ba:	f1 cf       	rjmp	.-30     	; 0x279e <__fp_splitA+0xc>
    27bc:	86 95       	lsr	r24
    27be:	71 05       	cpc	r23, r1
    27c0:	61 05       	cpc	r22, r1
    27c2:	08 94       	sec
    27c4:	08 95       	ret

000027c6 <__fp_zero>:
    27c6:	e8 94       	clt

000027c8 <__fp_szero>:
    27c8:	bb 27       	eor	r27, r27
    27ca:	66 27       	eor	r22, r22
    27cc:	77 27       	eor	r23, r23
    27ce:	cb 01       	movw	r24, r22
    27d0:	97 f9       	bld	r25, 7
    27d2:	08 95       	ret

000027d4 <__gesf2>:
    27d4:	8a df       	rcall	.-236    	; 0x26ea <__fp_cmp>
    27d6:	08 f4       	brcc	.+2      	; 0x27da <__gesf2+0x6>
    27d8:	8f ef       	ldi	r24, 0xFF	; 255
    27da:	08 95       	ret

000027dc <__mulsf3>:
    27dc:	0b d0       	rcall	.+22     	; 0x27f4 <__mulsf3x>
    27de:	c0 cf       	rjmp	.-128    	; 0x2760 <__fp_round>
    27e0:	b1 df       	rcall	.-158    	; 0x2744 <__fp_pscA>
    27e2:	28 f0       	brcs	.+10     	; 0x27ee <__mulsf3+0x12>
    27e4:	b6 df       	rcall	.-148    	; 0x2752 <__fp_pscB>
    27e6:	18 f0       	brcs	.+6      	; 0x27ee <__mulsf3+0x12>
    27e8:	95 23       	and	r25, r21
    27ea:	09 f0       	breq	.+2      	; 0x27ee <__mulsf3+0x12>
    27ec:	a2 cf       	rjmp	.-188    	; 0x2732 <__fp_inf>
    27ee:	a7 cf       	rjmp	.-178    	; 0x273e <__fp_nan>
    27f0:	11 24       	eor	r1, r1
    27f2:	ea cf       	rjmp	.-44     	; 0x27c8 <__fp_szero>

000027f4 <__mulsf3x>:
    27f4:	c6 df       	rcall	.-116    	; 0x2782 <__fp_split3>
    27f6:	a0 f3       	brcs	.-24     	; 0x27e0 <__mulsf3+0x4>

000027f8 <__mulsf3_pse>:
    27f8:	95 9f       	mul	r25, r21
    27fa:	d1 f3       	breq	.-12     	; 0x27f0 <__mulsf3+0x14>
    27fc:	95 0f       	add	r25, r21
    27fe:	50 e0       	ldi	r21, 0x00	; 0
    2800:	55 1f       	adc	r21, r21
    2802:	62 9f       	mul	r22, r18
    2804:	f0 01       	movw	r30, r0
    2806:	72 9f       	mul	r23, r18
    2808:	bb 27       	eor	r27, r27
    280a:	f0 0d       	add	r31, r0
    280c:	b1 1d       	adc	r27, r1
    280e:	63 9f       	mul	r22, r19
    2810:	aa 27       	eor	r26, r26
    2812:	f0 0d       	add	r31, r0
    2814:	b1 1d       	adc	r27, r1
    2816:	aa 1f       	adc	r26, r26
    2818:	64 9f       	mul	r22, r20
    281a:	66 27       	eor	r22, r22
    281c:	b0 0d       	add	r27, r0
    281e:	a1 1d       	adc	r26, r1
    2820:	66 1f       	adc	r22, r22
    2822:	82 9f       	mul	r24, r18
    2824:	22 27       	eor	r18, r18
    2826:	b0 0d       	add	r27, r0
    2828:	a1 1d       	adc	r26, r1
    282a:	62 1f       	adc	r22, r18
    282c:	73 9f       	mul	r23, r19
    282e:	b0 0d       	add	r27, r0
    2830:	a1 1d       	adc	r26, r1
    2832:	62 1f       	adc	r22, r18
    2834:	83 9f       	mul	r24, r19
    2836:	a0 0d       	add	r26, r0
    2838:	61 1d       	adc	r22, r1
    283a:	22 1f       	adc	r18, r18
    283c:	74 9f       	mul	r23, r20
    283e:	33 27       	eor	r19, r19
    2840:	a0 0d       	add	r26, r0
    2842:	61 1d       	adc	r22, r1
    2844:	23 1f       	adc	r18, r19
    2846:	84 9f       	mul	r24, r20
    2848:	60 0d       	add	r22, r0
    284a:	21 1d       	adc	r18, r1
    284c:	82 2f       	mov	r24, r18
    284e:	76 2f       	mov	r23, r22
    2850:	6a 2f       	mov	r22, r26
    2852:	11 24       	eor	r1, r1
    2854:	9f 57       	subi	r25, 0x7F	; 127
    2856:	50 40       	sbci	r21, 0x00	; 0
    2858:	8a f0       	brmi	.+34     	; 0x287c <__mulsf3_pse+0x84>
    285a:	e1 f0       	breq	.+56     	; 0x2894 <__mulsf3_pse+0x9c>
    285c:	88 23       	and	r24, r24
    285e:	4a f0       	brmi	.+18     	; 0x2872 <__mulsf3_pse+0x7a>
    2860:	ee 0f       	add	r30, r30
    2862:	ff 1f       	adc	r31, r31
    2864:	bb 1f       	adc	r27, r27
    2866:	66 1f       	adc	r22, r22
    2868:	77 1f       	adc	r23, r23
    286a:	88 1f       	adc	r24, r24
    286c:	91 50       	subi	r25, 0x01	; 1
    286e:	50 40       	sbci	r21, 0x00	; 0
    2870:	a9 f7       	brne	.-22     	; 0x285c <__mulsf3_pse+0x64>
    2872:	9e 3f       	cpi	r25, 0xFE	; 254
    2874:	51 05       	cpc	r21, r1
    2876:	70 f0       	brcs	.+28     	; 0x2894 <__mulsf3_pse+0x9c>
    2878:	5c cf       	rjmp	.-328    	; 0x2732 <__fp_inf>
    287a:	a6 cf       	rjmp	.-180    	; 0x27c8 <__fp_szero>
    287c:	5f 3f       	cpi	r21, 0xFF	; 255
    287e:	ec f3       	brlt	.-6      	; 0x287a <__mulsf3_pse+0x82>
    2880:	98 3e       	cpi	r25, 0xE8	; 232
    2882:	dc f3       	brlt	.-10     	; 0x287a <__mulsf3_pse+0x82>
    2884:	86 95       	lsr	r24
    2886:	77 95       	ror	r23
    2888:	67 95       	ror	r22
    288a:	b7 95       	ror	r27
    288c:	f7 95       	ror	r31
    288e:	e7 95       	ror	r30
    2890:	9f 5f       	subi	r25, 0xFF	; 255
    2892:	c1 f7       	brne	.-16     	; 0x2884 <__mulsf3_pse+0x8c>
    2894:	fe 2b       	or	r31, r30
    2896:	88 0f       	add	r24, r24
    2898:	91 1d       	adc	r25, r1
    289a:	96 95       	lsr	r25
    289c:	87 95       	ror	r24
    289e:	97 f9       	bld	r25, 7
    28a0:	08 95       	ret

000028a2 <vfprintf>:
    28a2:	2f 92       	push	r2
    28a4:	3f 92       	push	r3
    28a6:	4f 92       	push	r4
    28a8:	5f 92       	push	r5
    28aa:	6f 92       	push	r6
    28ac:	7f 92       	push	r7
    28ae:	8f 92       	push	r8
    28b0:	9f 92       	push	r9
    28b2:	af 92       	push	r10
    28b4:	bf 92       	push	r11
    28b6:	cf 92       	push	r12
    28b8:	df 92       	push	r13
    28ba:	ef 92       	push	r14
    28bc:	ff 92       	push	r15
    28be:	0f 93       	push	r16
    28c0:	1f 93       	push	r17
    28c2:	cf 93       	push	r28
    28c4:	df 93       	push	r29
    28c6:	cd b7       	in	r28, 0x3d	; 61
    28c8:	de b7       	in	r29, 0x3e	; 62
    28ca:	63 97       	sbiw	r28, 0x13	; 19
    28cc:	0f b6       	in	r0, 0x3f	; 63
    28ce:	f8 94       	cli
    28d0:	de bf       	out	0x3e, r29	; 62
    28d2:	0f be       	out	0x3f, r0	; 63
    28d4:	cd bf       	out	0x3d, r28	; 61
    28d6:	7c 01       	movw	r14, r24
    28d8:	1b 01       	movw	r2, r22
    28da:	6a 01       	movw	r12, r20
    28dc:	fc 01       	movw	r30, r24
    28de:	17 82       	std	Z+7, r1	; 0x07
    28e0:	16 82       	std	Z+6, r1	; 0x06
    28e2:	83 81       	ldd	r24, Z+3	; 0x03
    28e4:	81 ff       	sbrs	r24, 1
    28e6:	64 c3       	rjmp	.+1736   	; 0x2fb0 <vfprintf+0x70e>
    28e8:	be 01       	movw	r22, r28
    28ea:	6f 5f       	subi	r22, 0xFF	; 255
    28ec:	7f 4f       	sbci	r23, 0xFF	; 255
    28ee:	4b 01       	movw	r8, r22
    28f0:	f7 01       	movw	r30, r14
    28f2:	93 81       	ldd	r25, Z+3	; 0x03
    28f4:	f1 01       	movw	r30, r2
    28f6:	93 fd       	sbrc	r25, 3
    28f8:	85 91       	lpm	r24, Z+
    28fa:	93 ff       	sbrs	r25, 3
    28fc:	81 91       	ld	r24, Z+
    28fe:	1f 01       	movw	r2, r30
    2900:	88 23       	and	r24, r24
    2902:	09 f4       	brne	.+2      	; 0x2906 <vfprintf+0x64>
    2904:	51 c3       	rjmp	.+1698   	; 0x2fa8 <vfprintf+0x706>
    2906:	85 32       	cpi	r24, 0x25	; 37
    2908:	39 f4       	brne	.+14     	; 0x2918 <vfprintf+0x76>
    290a:	93 fd       	sbrc	r25, 3
    290c:	85 91       	lpm	r24, Z+
    290e:	93 ff       	sbrs	r25, 3
    2910:	81 91       	ld	r24, Z+
    2912:	1f 01       	movw	r2, r30
    2914:	85 32       	cpi	r24, 0x25	; 37
    2916:	39 f4       	brne	.+14     	; 0x2926 <vfprintf+0x84>
    2918:	b7 01       	movw	r22, r14
    291a:	90 e0       	ldi	r25, 0x00	; 0
    291c:	0e 94 c5 1f 	call	0x3f8a	; 0x3f8a <fputc>
    2920:	56 01       	movw	r10, r12
    2922:	65 01       	movw	r12, r10
    2924:	e5 cf       	rjmp	.-54     	; 0x28f0 <vfprintf+0x4e>
    2926:	10 e0       	ldi	r17, 0x00	; 0
    2928:	51 2c       	mov	r5, r1
    292a:	20 e0       	ldi	r18, 0x00	; 0
    292c:	20 32       	cpi	r18, 0x20	; 32
    292e:	a0 f4       	brcc	.+40     	; 0x2958 <vfprintf+0xb6>
    2930:	8b 32       	cpi	r24, 0x2B	; 43
    2932:	69 f0       	breq	.+26     	; 0x294e <vfprintf+0xac>
    2934:	30 f4       	brcc	.+12     	; 0x2942 <vfprintf+0xa0>
    2936:	80 32       	cpi	r24, 0x20	; 32
    2938:	59 f0       	breq	.+22     	; 0x2950 <vfprintf+0xae>
    293a:	83 32       	cpi	r24, 0x23	; 35
    293c:	69 f4       	brne	.+26     	; 0x2958 <vfprintf+0xb6>
    293e:	20 61       	ori	r18, 0x10	; 16
    2940:	2c c0       	rjmp	.+88     	; 0x299a <vfprintf+0xf8>
    2942:	8d 32       	cpi	r24, 0x2D	; 45
    2944:	39 f0       	breq	.+14     	; 0x2954 <vfprintf+0xb2>
    2946:	80 33       	cpi	r24, 0x30	; 48
    2948:	39 f4       	brne	.+14     	; 0x2958 <vfprintf+0xb6>
    294a:	21 60       	ori	r18, 0x01	; 1
    294c:	26 c0       	rjmp	.+76     	; 0x299a <vfprintf+0xf8>
    294e:	22 60       	ori	r18, 0x02	; 2
    2950:	24 60       	ori	r18, 0x04	; 4
    2952:	23 c0       	rjmp	.+70     	; 0x299a <vfprintf+0xf8>
    2954:	28 60       	ori	r18, 0x08	; 8
    2956:	21 c0       	rjmp	.+66     	; 0x299a <vfprintf+0xf8>
    2958:	27 fd       	sbrc	r18, 7
    295a:	27 c0       	rjmp	.+78     	; 0x29aa <vfprintf+0x108>
    295c:	30 ed       	ldi	r19, 0xD0	; 208
    295e:	38 0f       	add	r19, r24
    2960:	3a 30       	cpi	r19, 0x0A	; 10
    2962:	78 f4       	brcc	.+30     	; 0x2982 <vfprintf+0xe0>
    2964:	26 ff       	sbrs	r18, 6
    2966:	06 c0       	rjmp	.+12     	; 0x2974 <vfprintf+0xd2>
    2968:	fa e0       	ldi	r31, 0x0A	; 10
    296a:	1f 9f       	mul	r17, r31
    296c:	30 0d       	add	r19, r0
    296e:	11 24       	eor	r1, r1
    2970:	13 2f       	mov	r17, r19
    2972:	13 c0       	rjmp	.+38     	; 0x299a <vfprintf+0xf8>
    2974:	6a e0       	ldi	r22, 0x0A	; 10
    2976:	56 9e       	mul	r5, r22
    2978:	30 0d       	add	r19, r0
    297a:	11 24       	eor	r1, r1
    297c:	53 2e       	mov	r5, r19
    297e:	20 62       	ori	r18, 0x20	; 32
    2980:	0c c0       	rjmp	.+24     	; 0x299a <vfprintf+0xf8>
    2982:	8e 32       	cpi	r24, 0x2E	; 46
    2984:	21 f4       	brne	.+8      	; 0x298e <vfprintf+0xec>
    2986:	26 fd       	sbrc	r18, 6
    2988:	0f c3       	rjmp	.+1566   	; 0x2fa8 <vfprintf+0x706>
    298a:	20 64       	ori	r18, 0x40	; 64
    298c:	06 c0       	rjmp	.+12     	; 0x299a <vfprintf+0xf8>
    298e:	8c 36       	cpi	r24, 0x6C	; 108
    2990:	11 f4       	brne	.+4      	; 0x2996 <vfprintf+0xf4>
    2992:	20 68       	ori	r18, 0x80	; 128
    2994:	02 c0       	rjmp	.+4      	; 0x299a <vfprintf+0xf8>
    2996:	88 36       	cpi	r24, 0x68	; 104
    2998:	41 f4       	brne	.+16     	; 0x29aa <vfprintf+0x108>
    299a:	f1 01       	movw	r30, r2
    299c:	93 fd       	sbrc	r25, 3
    299e:	85 91       	lpm	r24, Z+
    29a0:	93 ff       	sbrs	r25, 3
    29a2:	81 91       	ld	r24, Z+
    29a4:	1f 01       	movw	r2, r30
    29a6:	81 11       	cpse	r24, r1
    29a8:	c1 cf       	rjmp	.-126    	; 0x292c <vfprintf+0x8a>
    29aa:	9b eb       	ldi	r25, 0xBB	; 187
    29ac:	98 0f       	add	r25, r24
    29ae:	93 30       	cpi	r25, 0x03	; 3
    29b0:	18 f4       	brcc	.+6      	; 0x29b8 <vfprintf+0x116>
    29b2:	20 61       	ori	r18, 0x10	; 16
    29b4:	80 5e       	subi	r24, 0xE0	; 224
    29b6:	06 c0       	rjmp	.+12     	; 0x29c4 <vfprintf+0x122>
    29b8:	9b e9       	ldi	r25, 0x9B	; 155
    29ba:	98 0f       	add	r25, r24
    29bc:	93 30       	cpi	r25, 0x03	; 3
    29be:	08 f0       	brcs	.+2      	; 0x29c2 <vfprintf+0x120>
    29c0:	aa c1       	rjmp	.+852    	; 0x2d16 <vfprintf+0x474>
    29c2:	2f 7e       	andi	r18, 0xEF	; 239
    29c4:	26 ff       	sbrs	r18, 6
    29c6:	16 e0       	ldi	r17, 0x06	; 6
    29c8:	2f 73       	andi	r18, 0x3F	; 63
    29ca:	72 2e       	mov	r7, r18
    29cc:	85 36       	cpi	r24, 0x65	; 101
    29ce:	21 f4       	brne	.+8      	; 0x29d8 <vfprintf+0x136>
    29d0:	f2 2f       	mov	r31, r18
    29d2:	f0 64       	ori	r31, 0x40	; 64
    29d4:	7f 2e       	mov	r7, r31
    29d6:	08 c0       	rjmp	.+16     	; 0x29e8 <vfprintf+0x146>
    29d8:	86 36       	cpi	r24, 0x66	; 102
    29da:	21 f4       	brne	.+8      	; 0x29e4 <vfprintf+0x142>
    29dc:	62 2f       	mov	r22, r18
    29de:	60 68       	ori	r22, 0x80	; 128
    29e0:	76 2e       	mov	r7, r22
    29e2:	02 c0       	rjmp	.+4      	; 0x29e8 <vfprintf+0x146>
    29e4:	11 11       	cpse	r17, r1
    29e6:	11 50       	subi	r17, 0x01	; 1
    29e8:	77 fe       	sbrs	r7, 7
    29ea:	07 c0       	rjmp	.+14     	; 0x29fa <vfprintf+0x158>
    29ec:	1c 33       	cpi	r17, 0x3C	; 60
    29ee:	48 f4       	brcc	.+18     	; 0x2a02 <vfprintf+0x160>
    29f0:	44 24       	eor	r4, r4
    29f2:	43 94       	inc	r4
    29f4:	41 0e       	add	r4, r17
    29f6:	27 e0       	ldi	r18, 0x07	; 7
    29f8:	0b c0       	rjmp	.+22     	; 0x2a10 <vfprintf+0x16e>
    29fa:	18 30       	cpi	r17, 0x08	; 8
    29fc:	30 f4       	brcc	.+12     	; 0x2a0a <vfprintf+0x168>
    29fe:	21 2f       	mov	r18, r17
    2a00:	06 c0       	rjmp	.+12     	; 0x2a0e <vfprintf+0x16c>
    2a02:	27 e0       	ldi	r18, 0x07	; 7
    2a04:	4c e3       	ldi	r20, 0x3C	; 60
    2a06:	44 2e       	mov	r4, r20
    2a08:	03 c0       	rjmp	.+6      	; 0x2a10 <vfprintf+0x16e>
    2a0a:	27 e0       	ldi	r18, 0x07	; 7
    2a0c:	17 e0       	ldi	r17, 0x07	; 7
    2a0e:	41 2c       	mov	r4, r1
    2a10:	56 01       	movw	r10, r12
    2a12:	74 e0       	ldi	r23, 0x04	; 4
    2a14:	a7 0e       	add	r10, r23
    2a16:	b1 1c       	adc	r11, r1
    2a18:	f6 01       	movw	r30, r12
    2a1a:	60 81       	ld	r22, Z
    2a1c:	71 81       	ldd	r23, Z+1	; 0x01
    2a1e:	82 81       	ldd	r24, Z+2	; 0x02
    2a20:	93 81       	ldd	r25, Z+3	; 0x03
    2a22:	04 2d       	mov	r16, r4
    2a24:	a4 01       	movw	r20, r8
    2a26:	0e 94 2d 1e 	call	0x3c5a	; 0x3c5a <__ftoa_engine>
    2a2a:	6c 01       	movw	r12, r24
    2a2c:	09 81       	ldd	r16, Y+1	; 0x01
    2a2e:	00 ff       	sbrs	r16, 0
    2a30:	02 c0       	rjmp	.+4      	; 0x2a36 <vfprintf+0x194>
    2a32:	03 ff       	sbrs	r16, 3
    2a34:	06 c0       	rjmp	.+12     	; 0x2a42 <vfprintf+0x1a0>
    2a36:	71 fc       	sbrc	r7, 1
    2a38:	07 c0       	rjmp	.+14     	; 0x2a48 <vfprintf+0x1a6>
    2a3a:	72 fc       	sbrc	r7, 2
    2a3c:	08 c0       	rjmp	.+16     	; 0x2a4e <vfprintf+0x1ac>
    2a3e:	61 2c       	mov	r6, r1
    2a40:	08 c0       	rjmp	.+16     	; 0x2a52 <vfprintf+0x1b0>
    2a42:	3d e2       	ldi	r19, 0x2D	; 45
    2a44:	63 2e       	mov	r6, r19
    2a46:	05 c0       	rjmp	.+10     	; 0x2a52 <vfprintf+0x1b0>
    2a48:	2b e2       	ldi	r18, 0x2B	; 43
    2a4a:	62 2e       	mov	r6, r18
    2a4c:	02 c0       	rjmp	.+4      	; 0x2a52 <vfprintf+0x1b0>
    2a4e:	90 e2       	ldi	r25, 0x20	; 32
    2a50:	69 2e       	mov	r6, r25
    2a52:	80 2f       	mov	r24, r16
    2a54:	8c 70       	andi	r24, 0x0C	; 12
    2a56:	99 f1       	breq	.+102    	; 0x2abe <vfprintf+0x21c>
    2a58:	66 20       	and	r6, r6
    2a5a:	11 f0       	breq	.+4      	; 0x2a60 <vfprintf+0x1be>
    2a5c:	84 e0       	ldi	r24, 0x04	; 4
    2a5e:	01 c0       	rjmp	.+2      	; 0x2a62 <vfprintf+0x1c0>
    2a60:	83 e0       	ldi	r24, 0x03	; 3
    2a62:	85 15       	cp	r24, r5
    2a64:	10 f0       	brcs	.+4      	; 0x2a6a <vfprintf+0x1c8>
    2a66:	51 2c       	mov	r5, r1
    2a68:	0b c0       	rjmp	.+22     	; 0x2a80 <vfprintf+0x1de>
    2a6a:	58 1a       	sub	r5, r24
    2a6c:	73 fc       	sbrc	r7, 3
    2a6e:	08 c0       	rjmp	.+16     	; 0x2a80 <vfprintf+0x1de>
    2a70:	b7 01       	movw	r22, r14
    2a72:	80 e2       	ldi	r24, 0x20	; 32
    2a74:	90 e0       	ldi	r25, 0x00	; 0
    2a76:	0e 94 c5 1f 	call	0x3f8a	; 0x3f8a <fputc>
    2a7a:	5a 94       	dec	r5
    2a7c:	c9 f7       	brne	.-14     	; 0x2a70 <vfprintf+0x1ce>
    2a7e:	f3 cf       	rjmp	.-26     	; 0x2a66 <vfprintf+0x1c4>
    2a80:	66 20       	and	r6, r6
    2a82:	29 f0       	breq	.+10     	; 0x2a8e <vfprintf+0x1ec>
    2a84:	b7 01       	movw	r22, r14
    2a86:	86 2d       	mov	r24, r6
    2a88:	90 e0       	ldi	r25, 0x00	; 0
    2a8a:	0e 94 c5 1f 	call	0x3f8a	; 0x3f8a <fputc>
    2a8e:	03 fd       	sbrc	r16, 3
    2a90:	03 c0       	rjmp	.+6      	; 0x2a98 <vfprintf+0x1f6>
    2a92:	00 e0       	ldi	r16, 0x00	; 0
    2a94:	11 e0       	ldi	r17, 0x01	; 1
    2a96:	02 c0       	rjmp	.+4      	; 0x2a9c <vfprintf+0x1fa>
    2a98:	0c ef       	ldi	r16, 0xFC	; 252
    2a9a:	10 e0       	ldi	r17, 0x00	; 0
    2a9c:	f7 2d       	mov	r31, r7
    2a9e:	f0 71       	andi	r31, 0x10	; 16
    2aa0:	7f 2e       	mov	r7, r31
    2aa2:	f8 01       	movw	r30, r16
    2aa4:	84 91       	lpm	r24, Z
    2aa6:	88 23       	and	r24, r24
    2aa8:	09 f4       	brne	.+2      	; 0x2aac <vfprintf+0x20a>
    2aaa:	75 c2       	rjmp	.+1258   	; 0x2f96 <vfprintf+0x6f4>
    2aac:	71 10       	cpse	r7, r1
    2aae:	80 52       	subi	r24, 0x20	; 32
    2ab0:	b7 01       	movw	r22, r14
    2ab2:	90 e0       	ldi	r25, 0x00	; 0
    2ab4:	0e 94 c5 1f 	call	0x3f8a	; 0x3f8a <fputc>
    2ab8:	0f 5f       	subi	r16, 0xFF	; 255
    2aba:	1f 4f       	sbci	r17, 0xFF	; 255
    2abc:	f2 cf       	rjmp	.-28     	; 0x2aa2 <vfprintf+0x200>
    2abe:	77 fe       	sbrs	r7, 7
    2ac0:	0f c0       	rjmp	.+30     	; 0x2ae0 <vfprintf+0x23e>
    2ac2:	4c 0c       	add	r4, r12
    2ac4:	04 ff       	sbrs	r16, 4
    2ac6:	04 c0       	rjmp	.+8      	; 0x2ad0 <vfprintf+0x22e>
    2ac8:	8a 81       	ldd	r24, Y+2	; 0x02
    2aca:	81 33       	cpi	r24, 0x31	; 49
    2acc:	09 f4       	brne	.+2      	; 0x2ad0 <vfprintf+0x22e>
    2ace:	4a 94       	dec	r4
    2ad0:	14 14       	cp	r1, r4
    2ad2:	74 f5       	brge	.+92     	; 0x2b30 <vfprintf+0x28e>
    2ad4:	f8 e0       	ldi	r31, 0x08	; 8
    2ad6:	f4 15       	cp	r31, r4
    2ad8:	78 f5       	brcc	.+94     	; 0x2b38 <vfprintf+0x296>
    2ada:	88 e0       	ldi	r24, 0x08	; 8
    2adc:	48 2e       	mov	r4, r24
    2ade:	2c c0       	rjmp	.+88     	; 0x2b38 <vfprintf+0x296>
    2ae0:	76 fc       	sbrc	r7, 6
    2ae2:	2a c0       	rjmp	.+84     	; 0x2b38 <vfprintf+0x296>
    2ae4:	81 2f       	mov	r24, r17
    2ae6:	90 e0       	ldi	r25, 0x00	; 0
    2ae8:	8c 15       	cp	r24, r12
    2aea:	9d 05       	cpc	r25, r13
    2aec:	9c f0       	brlt	.+38     	; 0x2b14 <vfprintf+0x272>
    2aee:	6c ef       	ldi	r22, 0xFC	; 252
    2af0:	c6 16       	cp	r12, r22
    2af2:	6f ef       	ldi	r22, 0xFF	; 255
    2af4:	d6 06       	cpc	r13, r22
    2af6:	74 f0       	brlt	.+28     	; 0x2b14 <vfprintf+0x272>
    2af8:	77 2d       	mov	r23, r7
    2afa:	70 68       	ori	r23, 0x80	; 128
    2afc:	77 2e       	mov	r7, r23
    2afe:	0a c0       	rjmp	.+20     	; 0x2b14 <vfprintf+0x272>
    2b00:	e2 e0       	ldi	r30, 0x02	; 2
    2b02:	f0 e0       	ldi	r31, 0x00	; 0
    2b04:	ec 0f       	add	r30, r28
    2b06:	fd 1f       	adc	r31, r29
    2b08:	e1 0f       	add	r30, r17
    2b0a:	f1 1d       	adc	r31, r1
    2b0c:	80 81       	ld	r24, Z
    2b0e:	80 33       	cpi	r24, 0x30	; 48
    2b10:	19 f4       	brne	.+6      	; 0x2b18 <vfprintf+0x276>
    2b12:	11 50       	subi	r17, 0x01	; 1
    2b14:	11 11       	cpse	r17, r1
    2b16:	f4 cf       	rjmp	.-24     	; 0x2b00 <vfprintf+0x25e>
    2b18:	77 fe       	sbrs	r7, 7
    2b1a:	0e c0       	rjmp	.+28     	; 0x2b38 <vfprintf+0x296>
    2b1c:	44 24       	eor	r4, r4
    2b1e:	43 94       	inc	r4
    2b20:	41 0e       	add	r4, r17
    2b22:	81 2f       	mov	r24, r17
    2b24:	90 e0       	ldi	r25, 0x00	; 0
    2b26:	c8 16       	cp	r12, r24
    2b28:	d9 06       	cpc	r13, r25
    2b2a:	2c f4       	brge	.+10     	; 0x2b36 <vfprintf+0x294>
    2b2c:	1c 19       	sub	r17, r12
    2b2e:	04 c0       	rjmp	.+8      	; 0x2b38 <vfprintf+0x296>
    2b30:	44 24       	eor	r4, r4
    2b32:	43 94       	inc	r4
    2b34:	01 c0       	rjmp	.+2      	; 0x2b38 <vfprintf+0x296>
    2b36:	10 e0       	ldi	r17, 0x00	; 0
    2b38:	77 fe       	sbrs	r7, 7
    2b3a:	07 c0       	rjmp	.+14     	; 0x2b4a <vfprintf+0x2a8>
    2b3c:	1c 14       	cp	r1, r12
    2b3e:	1d 04       	cpc	r1, r13
    2b40:	3c f4       	brge	.+14     	; 0x2b50 <vfprintf+0x2ae>
    2b42:	96 01       	movw	r18, r12
    2b44:	2f 5f       	subi	r18, 0xFF	; 255
    2b46:	3f 4f       	sbci	r19, 0xFF	; 255
    2b48:	05 c0       	rjmp	.+10     	; 0x2b54 <vfprintf+0x2b2>
    2b4a:	25 e0       	ldi	r18, 0x05	; 5
    2b4c:	30 e0       	ldi	r19, 0x00	; 0
    2b4e:	02 c0       	rjmp	.+4      	; 0x2b54 <vfprintf+0x2b2>
    2b50:	21 e0       	ldi	r18, 0x01	; 1
    2b52:	30 e0       	ldi	r19, 0x00	; 0
    2b54:	66 20       	and	r6, r6
    2b56:	11 f0       	breq	.+4      	; 0x2b5c <vfprintf+0x2ba>
    2b58:	2f 5f       	subi	r18, 0xFF	; 255
    2b5a:	3f 4f       	sbci	r19, 0xFF	; 255
    2b5c:	11 23       	and	r17, r17
    2b5e:	31 f0       	breq	.+12     	; 0x2b6c <vfprintf+0x2ca>
    2b60:	41 2f       	mov	r20, r17
    2b62:	50 e0       	ldi	r21, 0x00	; 0
    2b64:	4f 5f       	subi	r20, 0xFF	; 255
    2b66:	5f 4f       	sbci	r21, 0xFF	; 255
    2b68:	24 0f       	add	r18, r20
    2b6a:	35 1f       	adc	r19, r21
    2b6c:	45 2d       	mov	r20, r5
    2b6e:	50 e0       	ldi	r21, 0x00	; 0
    2b70:	24 17       	cp	r18, r20
    2b72:	35 07       	cpc	r19, r21
    2b74:	14 f4       	brge	.+4      	; 0x2b7a <vfprintf+0x2d8>
    2b76:	52 1a       	sub	r5, r18
    2b78:	01 c0       	rjmp	.+2      	; 0x2b7c <vfprintf+0x2da>
    2b7a:	51 2c       	mov	r5, r1
    2b7c:	87 2d       	mov	r24, r7
    2b7e:	89 70       	andi	r24, 0x09	; 9
    2b80:	49 f4       	brne	.+18     	; 0x2b94 <vfprintf+0x2f2>
    2b82:	55 20       	and	r5, r5
    2b84:	39 f0       	breq	.+14     	; 0x2b94 <vfprintf+0x2f2>
    2b86:	b7 01       	movw	r22, r14
    2b88:	80 e2       	ldi	r24, 0x20	; 32
    2b8a:	90 e0       	ldi	r25, 0x00	; 0
    2b8c:	0e 94 c5 1f 	call	0x3f8a	; 0x3f8a <fputc>
    2b90:	5a 94       	dec	r5
    2b92:	f7 cf       	rjmp	.-18     	; 0x2b82 <vfprintf+0x2e0>
    2b94:	66 20       	and	r6, r6
    2b96:	29 f0       	breq	.+10     	; 0x2ba2 <vfprintf+0x300>
    2b98:	b7 01       	movw	r22, r14
    2b9a:	86 2d       	mov	r24, r6
    2b9c:	90 e0       	ldi	r25, 0x00	; 0
    2b9e:	0e 94 c5 1f 	call	0x3f8a	; 0x3f8a <fputc>
    2ba2:	73 fc       	sbrc	r7, 3
    2ba4:	09 c0       	rjmp	.+18     	; 0x2bb8 <vfprintf+0x316>
    2ba6:	55 20       	and	r5, r5
    2ba8:	39 f0       	breq	.+14     	; 0x2bb8 <vfprintf+0x316>
    2baa:	b7 01       	movw	r22, r14
    2bac:	80 e3       	ldi	r24, 0x30	; 48
    2bae:	90 e0       	ldi	r25, 0x00	; 0
    2bb0:	0e 94 c5 1f 	call	0x3f8a	; 0x3f8a <fputc>
    2bb4:	5a 94       	dec	r5
    2bb6:	f7 cf       	rjmp	.-18     	; 0x2ba6 <vfprintf+0x304>
    2bb8:	77 fe       	sbrs	r7, 7
    2bba:	5f c0       	rjmp	.+190    	; 0x2c7a <vfprintf+0x3d8>
    2bbc:	9c 2d       	mov	r25, r12
    2bbe:	8d 2d       	mov	r24, r13
    2bc0:	d7 fe       	sbrs	r13, 7
    2bc2:	02 c0       	rjmp	.+4      	; 0x2bc8 <vfprintf+0x326>
    2bc4:	90 e0       	ldi	r25, 0x00	; 0
    2bc6:	80 e0       	ldi	r24, 0x00	; 0
    2bc8:	69 2e       	mov	r6, r25
    2bca:	78 2e       	mov	r7, r24
    2bcc:	40 e0       	ldi	r20, 0x00	; 0
    2bce:	50 e0       	ldi	r21, 0x00	; 0
    2bd0:	c6 01       	movw	r24, r12
    2bd2:	84 19       	sub	r24, r4
    2bd4:	91 09       	sbc	r25, r1
    2bd6:	9d 87       	std	Y+13, r25	; 0x0d
    2bd8:	8c 87       	std	Y+12, r24	; 0x0c
    2bda:	96 01       	movw	r18, r12
    2bdc:	26 19       	sub	r18, r6
    2bde:	37 09       	sbc	r19, r7
    2be0:	28 0d       	add	r18, r8
    2be2:	39 1d       	adc	r19, r9
    2be4:	81 2f       	mov	r24, r17
    2be6:	90 e0       	ldi	r25, 0x00	; 0
    2be8:	ee 27       	eor	r30, r30
    2bea:	ff 27       	eor	r31, r31
    2bec:	e8 1b       	sub	r30, r24
    2bee:	f9 0b       	sbc	r31, r25
    2bf0:	ff 87       	std	Y+15, r31	; 0x0f
    2bf2:	ee 87       	std	Y+14, r30	; 0x0e
    2bf4:	ff ef       	ldi	r31, 0xFF	; 255
    2bf6:	6f 16       	cp	r6, r31
    2bf8:	7f 06       	cpc	r7, r31
    2bfa:	69 f4       	brne	.+26     	; 0x2c16 <vfprintf+0x374>
    2bfc:	b7 01       	movw	r22, r14
    2bfe:	8e e2       	ldi	r24, 0x2E	; 46
    2c00:	90 e0       	ldi	r25, 0x00	; 0
    2c02:	2b 8b       	std	Y+19, r18	; 0x13
    2c04:	3a 8b       	std	Y+18, r19	; 0x12
    2c06:	48 8b       	std	Y+16, r20	; 0x10
    2c08:	59 8b       	std	Y+17, r21	; 0x11
    2c0a:	0e 94 c5 1f 	call	0x3f8a	; 0x3f8a <fputc>
    2c0e:	59 89       	ldd	r21, Y+17	; 0x11
    2c10:	48 89       	ldd	r20, Y+16	; 0x10
    2c12:	3a 89       	ldd	r19, Y+18	; 0x12
    2c14:	2b 89       	ldd	r18, Y+19	; 0x13
    2c16:	c6 14       	cp	r12, r6
    2c18:	d7 04       	cpc	r13, r7
    2c1a:	54 f0       	brlt	.+20     	; 0x2c30 <vfprintf+0x38e>
    2c1c:	6c 85       	ldd	r22, Y+12	; 0x0c
    2c1e:	7d 85       	ldd	r23, Y+13	; 0x0d
    2c20:	66 15       	cp	r22, r6
    2c22:	77 05       	cpc	r23, r7
    2c24:	2c f4       	brge	.+10     	; 0x2c30 <vfprintf+0x38e>
    2c26:	f9 01       	movw	r30, r18
    2c28:	e4 0f       	add	r30, r20
    2c2a:	f5 1f       	adc	r31, r21
    2c2c:	81 81       	ldd	r24, Z+1	; 0x01
    2c2e:	01 c0       	rjmp	.+2      	; 0x2c32 <vfprintf+0x390>
    2c30:	80 e3       	ldi	r24, 0x30	; 48
    2c32:	71 e0       	ldi	r23, 0x01	; 1
    2c34:	67 1a       	sub	r6, r23
    2c36:	71 08       	sbc	r7, r1
    2c38:	4f 5f       	subi	r20, 0xFF	; 255
    2c3a:	5f 4f       	sbci	r21, 0xFF	; 255
    2c3c:	ee 85       	ldd	r30, Y+14	; 0x0e
    2c3e:	ff 85       	ldd	r31, Y+15	; 0x0f
    2c40:	6e 16       	cp	r6, r30
    2c42:	7f 06       	cpc	r7, r31
    2c44:	6c f0       	brlt	.+26     	; 0x2c60 <vfprintf+0x3be>
    2c46:	b7 01       	movw	r22, r14
    2c48:	90 e0       	ldi	r25, 0x00	; 0
    2c4a:	2b 8b       	std	Y+19, r18	; 0x13
    2c4c:	3a 8b       	std	Y+18, r19	; 0x12
    2c4e:	48 8b       	std	Y+16, r20	; 0x10
    2c50:	59 8b       	std	Y+17, r21	; 0x11
    2c52:	0e 94 c5 1f 	call	0x3f8a	; 0x3f8a <fputc>
    2c56:	2b 89       	ldd	r18, Y+19	; 0x13
    2c58:	3a 89       	ldd	r19, Y+18	; 0x12
    2c5a:	48 89       	ldd	r20, Y+16	; 0x10
    2c5c:	59 89       	ldd	r21, Y+17	; 0x11
    2c5e:	ca cf       	rjmp	.-108    	; 0x2bf4 <vfprintf+0x352>
    2c60:	6c 14       	cp	r6, r12
    2c62:	7d 04       	cpc	r7, r13
    2c64:	39 f4       	brne	.+14     	; 0x2c74 <vfprintf+0x3d2>
    2c66:	9a 81       	ldd	r25, Y+2	; 0x02
    2c68:	96 33       	cpi	r25, 0x36	; 54
    2c6a:	18 f4       	brcc	.+6      	; 0x2c72 <vfprintf+0x3d0>
    2c6c:	95 33       	cpi	r25, 0x35	; 53
    2c6e:	11 f4       	brne	.+4      	; 0x2c74 <vfprintf+0x3d2>
    2c70:	04 ff       	sbrs	r16, 4
    2c72:	81 e3       	ldi	r24, 0x31	; 49
    2c74:	b7 01       	movw	r22, r14
    2c76:	90 e0       	ldi	r25, 0x00	; 0
    2c78:	4b c0       	rjmp	.+150    	; 0x2d10 <vfprintf+0x46e>
    2c7a:	8a 81       	ldd	r24, Y+2	; 0x02
    2c7c:	81 33       	cpi	r24, 0x31	; 49
    2c7e:	09 f0       	breq	.+2      	; 0x2c82 <vfprintf+0x3e0>
    2c80:	0f 7e       	andi	r16, 0xEF	; 239
    2c82:	b7 01       	movw	r22, r14
    2c84:	90 e0       	ldi	r25, 0x00	; 0
    2c86:	0e 94 c5 1f 	call	0x3f8a	; 0x3f8a <fputc>
    2c8a:	11 11       	cpse	r17, r1
    2c8c:	05 c0       	rjmp	.+10     	; 0x2c98 <vfprintf+0x3f6>
    2c8e:	74 fe       	sbrs	r7, 4
    2c90:	18 c0       	rjmp	.+48     	; 0x2cc2 <vfprintf+0x420>
    2c92:	85 e4       	ldi	r24, 0x45	; 69
    2c94:	90 e0       	ldi	r25, 0x00	; 0
    2c96:	17 c0       	rjmp	.+46     	; 0x2cc6 <vfprintf+0x424>
    2c98:	b7 01       	movw	r22, r14
    2c9a:	8e e2       	ldi	r24, 0x2E	; 46
    2c9c:	90 e0       	ldi	r25, 0x00	; 0
    2c9e:	0e 94 c5 1f 	call	0x3f8a	; 0x3f8a <fputc>
    2ca2:	82 e0       	ldi	r24, 0x02	; 2
    2ca4:	66 24       	eor	r6, r6
    2ca6:	63 94       	inc	r6
    2ca8:	68 0e       	add	r6, r24
    2caa:	f4 01       	movw	r30, r8
    2cac:	e8 0f       	add	r30, r24
    2cae:	f1 1d       	adc	r31, r1
    2cb0:	80 81       	ld	r24, Z
    2cb2:	b7 01       	movw	r22, r14
    2cb4:	90 e0       	ldi	r25, 0x00	; 0
    2cb6:	0e 94 c5 1f 	call	0x3f8a	; 0x3f8a <fputc>
    2cba:	11 50       	subi	r17, 0x01	; 1
    2cbc:	41 f3       	breq	.-48     	; 0x2c8e <vfprintf+0x3ec>
    2cbe:	86 2d       	mov	r24, r6
    2cc0:	f1 cf       	rjmp	.-30     	; 0x2ca4 <vfprintf+0x402>
    2cc2:	85 e6       	ldi	r24, 0x65	; 101
    2cc4:	90 e0       	ldi	r25, 0x00	; 0
    2cc6:	b7 01       	movw	r22, r14
    2cc8:	0e 94 c5 1f 	call	0x3f8a	; 0x3f8a <fputc>
    2ccc:	d7 fc       	sbrc	r13, 7
    2cce:	05 c0       	rjmp	.+10     	; 0x2cda <vfprintf+0x438>
    2cd0:	c1 14       	cp	r12, r1
    2cd2:	d1 04       	cpc	r13, r1
    2cd4:	39 f4       	brne	.+14     	; 0x2ce4 <vfprintf+0x442>
    2cd6:	04 ff       	sbrs	r16, 4
    2cd8:	05 c0       	rjmp	.+10     	; 0x2ce4 <vfprintf+0x442>
    2cda:	d1 94       	neg	r13
    2cdc:	c1 94       	neg	r12
    2cde:	d1 08       	sbc	r13, r1
    2ce0:	8d e2       	ldi	r24, 0x2D	; 45
    2ce2:	01 c0       	rjmp	.+2      	; 0x2ce6 <vfprintf+0x444>
    2ce4:	8b e2       	ldi	r24, 0x2B	; 43
    2ce6:	b7 01       	movw	r22, r14
    2ce8:	90 e0       	ldi	r25, 0x00	; 0
    2cea:	0e 94 c5 1f 	call	0x3f8a	; 0x3f8a <fputc>
    2cee:	80 e3       	ldi	r24, 0x30	; 48
    2cf0:	6a e0       	ldi	r22, 0x0A	; 10
    2cf2:	c6 16       	cp	r12, r22
    2cf4:	d1 04       	cpc	r13, r1
    2cf6:	2c f0       	brlt	.+10     	; 0x2d02 <vfprintf+0x460>
    2cf8:	8f 5f       	subi	r24, 0xFF	; 255
    2cfa:	fa e0       	ldi	r31, 0x0A	; 10
    2cfc:	cf 1a       	sub	r12, r31
    2cfe:	d1 08       	sbc	r13, r1
    2d00:	f7 cf       	rjmp	.-18     	; 0x2cf0 <vfprintf+0x44e>
    2d02:	b7 01       	movw	r22, r14
    2d04:	90 e0       	ldi	r25, 0x00	; 0
    2d06:	0e 94 c5 1f 	call	0x3f8a	; 0x3f8a <fputc>
    2d0a:	b7 01       	movw	r22, r14
    2d0c:	c6 01       	movw	r24, r12
    2d0e:	c0 96       	adiw	r24, 0x30	; 48
    2d10:	0e 94 c5 1f 	call	0x3f8a	; 0x3f8a <fputc>
    2d14:	40 c1       	rjmp	.+640    	; 0x2f96 <vfprintf+0x6f4>
    2d16:	83 36       	cpi	r24, 0x63	; 99
    2d18:	31 f0       	breq	.+12     	; 0x2d26 <vfprintf+0x484>
    2d1a:	83 37       	cpi	r24, 0x73	; 115
    2d1c:	79 f0       	breq	.+30     	; 0x2d3c <vfprintf+0x49a>
    2d1e:	83 35       	cpi	r24, 0x53	; 83
    2d20:	09 f0       	breq	.+2      	; 0x2d24 <vfprintf+0x482>
    2d22:	58 c0       	rjmp	.+176    	; 0x2dd4 <vfprintf+0x532>
    2d24:	21 c0       	rjmp	.+66     	; 0x2d68 <vfprintf+0x4c6>
    2d26:	56 01       	movw	r10, r12
    2d28:	72 e0       	ldi	r23, 0x02	; 2
    2d2a:	a7 0e       	add	r10, r23
    2d2c:	b1 1c       	adc	r11, r1
    2d2e:	f6 01       	movw	r30, r12
    2d30:	80 81       	ld	r24, Z
    2d32:	89 83       	std	Y+1, r24	; 0x01
    2d34:	01 e0       	ldi	r16, 0x01	; 1
    2d36:	10 e0       	ldi	r17, 0x00	; 0
    2d38:	64 01       	movw	r12, r8
    2d3a:	14 c0       	rjmp	.+40     	; 0x2d64 <vfprintf+0x4c2>
    2d3c:	56 01       	movw	r10, r12
    2d3e:	f2 e0       	ldi	r31, 0x02	; 2
    2d40:	af 0e       	add	r10, r31
    2d42:	b1 1c       	adc	r11, r1
    2d44:	f6 01       	movw	r30, r12
    2d46:	c0 80       	ld	r12, Z
    2d48:	d1 80       	ldd	r13, Z+1	; 0x01
    2d4a:	26 ff       	sbrs	r18, 6
    2d4c:	03 c0       	rjmp	.+6      	; 0x2d54 <vfprintf+0x4b2>
    2d4e:	61 2f       	mov	r22, r17
    2d50:	70 e0       	ldi	r23, 0x00	; 0
    2d52:	02 c0       	rjmp	.+4      	; 0x2d58 <vfprintf+0x4b6>
    2d54:	6f ef       	ldi	r22, 0xFF	; 255
    2d56:	7f ef       	ldi	r23, 0xFF	; 255
    2d58:	c6 01       	movw	r24, r12
    2d5a:	2b 8b       	std	Y+19, r18	; 0x13
    2d5c:	0e 94 32 1f 	call	0x3e64	; 0x3e64 <strnlen>
    2d60:	8c 01       	movw	r16, r24
    2d62:	2b 89       	ldd	r18, Y+19	; 0x13
    2d64:	2f 77       	andi	r18, 0x7F	; 127
    2d66:	15 c0       	rjmp	.+42     	; 0x2d92 <vfprintf+0x4f0>
    2d68:	56 01       	movw	r10, r12
    2d6a:	f2 e0       	ldi	r31, 0x02	; 2
    2d6c:	af 0e       	add	r10, r31
    2d6e:	b1 1c       	adc	r11, r1
    2d70:	f6 01       	movw	r30, r12
    2d72:	c0 80       	ld	r12, Z
    2d74:	d1 80       	ldd	r13, Z+1	; 0x01
    2d76:	26 ff       	sbrs	r18, 6
    2d78:	03 c0       	rjmp	.+6      	; 0x2d80 <vfprintf+0x4de>
    2d7a:	61 2f       	mov	r22, r17
    2d7c:	70 e0       	ldi	r23, 0x00	; 0
    2d7e:	02 c0       	rjmp	.+4      	; 0x2d84 <vfprintf+0x4e2>
    2d80:	6f ef       	ldi	r22, 0xFF	; 255
    2d82:	7f ef       	ldi	r23, 0xFF	; 255
    2d84:	c6 01       	movw	r24, r12
    2d86:	2b 8b       	std	Y+19, r18	; 0x13
    2d88:	0e 94 20 1f 	call	0x3e40	; 0x3e40 <strnlen_P>
    2d8c:	8c 01       	movw	r16, r24
    2d8e:	2b 89       	ldd	r18, Y+19	; 0x13
    2d90:	20 68       	ori	r18, 0x80	; 128
    2d92:	72 2e       	mov	r7, r18
    2d94:	23 fd       	sbrc	r18, 3
    2d96:	1a c0       	rjmp	.+52     	; 0x2dcc <vfprintf+0x52a>
    2d98:	85 2d       	mov	r24, r5
    2d9a:	90 e0       	ldi	r25, 0x00	; 0
    2d9c:	08 17       	cp	r16, r24
    2d9e:	19 07       	cpc	r17, r25
    2da0:	a8 f4       	brcc	.+42     	; 0x2dcc <vfprintf+0x52a>
    2da2:	b7 01       	movw	r22, r14
    2da4:	80 e2       	ldi	r24, 0x20	; 32
    2da6:	90 e0       	ldi	r25, 0x00	; 0
    2da8:	0e 94 c5 1f 	call	0x3f8a	; 0x3f8a <fputc>
    2dac:	5a 94       	dec	r5
    2dae:	f4 cf       	rjmp	.-24     	; 0x2d98 <vfprintf+0x4f6>
    2db0:	f6 01       	movw	r30, r12
    2db2:	77 fc       	sbrc	r7, 7
    2db4:	85 91       	lpm	r24, Z+
    2db6:	77 fe       	sbrs	r7, 7
    2db8:	81 91       	ld	r24, Z+
    2dba:	6f 01       	movw	r12, r30
    2dbc:	b7 01       	movw	r22, r14
    2dbe:	90 e0       	ldi	r25, 0x00	; 0
    2dc0:	0e 94 c5 1f 	call	0x3f8a	; 0x3f8a <fputc>
    2dc4:	51 10       	cpse	r5, r1
    2dc6:	5a 94       	dec	r5
    2dc8:	01 50       	subi	r16, 0x01	; 1
    2dca:	11 09       	sbc	r17, r1
    2dcc:	01 15       	cp	r16, r1
    2dce:	11 05       	cpc	r17, r1
    2dd0:	79 f7       	brne	.-34     	; 0x2db0 <vfprintf+0x50e>
    2dd2:	e1 c0       	rjmp	.+450    	; 0x2f96 <vfprintf+0x6f4>
    2dd4:	84 36       	cpi	r24, 0x64	; 100
    2dd6:	11 f0       	breq	.+4      	; 0x2ddc <vfprintf+0x53a>
    2dd8:	89 36       	cpi	r24, 0x69	; 105
    2dda:	51 f5       	brne	.+84     	; 0x2e30 <vfprintf+0x58e>
    2ddc:	56 01       	movw	r10, r12
    2dde:	27 ff       	sbrs	r18, 7
    2de0:	09 c0       	rjmp	.+18     	; 0x2df4 <vfprintf+0x552>
    2de2:	f4 e0       	ldi	r31, 0x04	; 4
    2de4:	af 0e       	add	r10, r31
    2de6:	b1 1c       	adc	r11, r1
    2de8:	f6 01       	movw	r30, r12
    2dea:	60 81       	ld	r22, Z
    2dec:	71 81       	ldd	r23, Z+1	; 0x01
    2dee:	82 81       	ldd	r24, Z+2	; 0x02
    2df0:	93 81       	ldd	r25, Z+3	; 0x03
    2df2:	0a c0       	rjmp	.+20     	; 0x2e08 <vfprintf+0x566>
    2df4:	f2 e0       	ldi	r31, 0x02	; 2
    2df6:	af 0e       	add	r10, r31
    2df8:	b1 1c       	adc	r11, r1
    2dfa:	f6 01       	movw	r30, r12
    2dfc:	60 81       	ld	r22, Z
    2dfe:	71 81       	ldd	r23, Z+1	; 0x01
    2e00:	88 27       	eor	r24, r24
    2e02:	77 fd       	sbrc	r23, 7
    2e04:	80 95       	com	r24
    2e06:	98 2f       	mov	r25, r24
    2e08:	02 2f       	mov	r16, r18
    2e0a:	0f 76       	andi	r16, 0x6F	; 111
    2e0c:	97 ff       	sbrs	r25, 7
    2e0e:	08 c0       	rjmp	.+16     	; 0x2e20 <vfprintf+0x57e>
    2e10:	90 95       	com	r25
    2e12:	80 95       	com	r24
    2e14:	70 95       	com	r23
    2e16:	61 95       	neg	r22
    2e18:	7f 4f       	sbci	r23, 0xFF	; 255
    2e1a:	8f 4f       	sbci	r24, 0xFF	; 255
    2e1c:	9f 4f       	sbci	r25, 0xFF	; 255
    2e1e:	00 68       	ori	r16, 0x80	; 128
    2e20:	2a e0       	ldi	r18, 0x0A	; 10
    2e22:	30 e0       	ldi	r19, 0x00	; 0
    2e24:	a4 01       	movw	r20, r8
    2e26:	0e 94 72 20 	call	0x40e4	; 0x40e4 <__ultoa_invert>
    2e2a:	c8 2e       	mov	r12, r24
    2e2c:	c8 18       	sub	r12, r8
    2e2e:	3e c0       	rjmp	.+124    	; 0x2eac <vfprintf+0x60a>
    2e30:	02 2f       	mov	r16, r18
    2e32:	85 37       	cpi	r24, 0x75	; 117
    2e34:	21 f4       	brne	.+8      	; 0x2e3e <vfprintf+0x59c>
    2e36:	0f 7e       	andi	r16, 0xEF	; 239
    2e38:	2a e0       	ldi	r18, 0x0A	; 10
    2e3a:	30 e0       	ldi	r19, 0x00	; 0
    2e3c:	1d c0       	rjmp	.+58     	; 0x2e78 <vfprintf+0x5d6>
    2e3e:	09 7f       	andi	r16, 0xF9	; 249
    2e40:	8f 36       	cpi	r24, 0x6F	; 111
    2e42:	91 f0       	breq	.+36     	; 0x2e68 <vfprintf+0x5c6>
    2e44:	18 f4       	brcc	.+6      	; 0x2e4c <vfprintf+0x5aa>
    2e46:	88 35       	cpi	r24, 0x58	; 88
    2e48:	59 f0       	breq	.+22     	; 0x2e60 <vfprintf+0x5be>
    2e4a:	ae c0       	rjmp	.+348    	; 0x2fa8 <vfprintf+0x706>
    2e4c:	80 37       	cpi	r24, 0x70	; 112
    2e4e:	19 f0       	breq	.+6      	; 0x2e56 <vfprintf+0x5b4>
    2e50:	88 37       	cpi	r24, 0x78	; 120
    2e52:	11 f0       	breq	.+4      	; 0x2e58 <vfprintf+0x5b6>
    2e54:	a9 c0       	rjmp	.+338    	; 0x2fa8 <vfprintf+0x706>
    2e56:	00 61       	ori	r16, 0x10	; 16
    2e58:	04 ff       	sbrs	r16, 4
    2e5a:	09 c0       	rjmp	.+18     	; 0x2e6e <vfprintf+0x5cc>
    2e5c:	04 60       	ori	r16, 0x04	; 4
    2e5e:	07 c0       	rjmp	.+14     	; 0x2e6e <vfprintf+0x5cc>
    2e60:	24 ff       	sbrs	r18, 4
    2e62:	08 c0       	rjmp	.+16     	; 0x2e74 <vfprintf+0x5d2>
    2e64:	06 60       	ori	r16, 0x06	; 6
    2e66:	06 c0       	rjmp	.+12     	; 0x2e74 <vfprintf+0x5d2>
    2e68:	28 e0       	ldi	r18, 0x08	; 8
    2e6a:	30 e0       	ldi	r19, 0x00	; 0
    2e6c:	05 c0       	rjmp	.+10     	; 0x2e78 <vfprintf+0x5d6>
    2e6e:	20 e1       	ldi	r18, 0x10	; 16
    2e70:	30 e0       	ldi	r19, 0x00	; 0
    2e72:	02 c0       	rjmp	.+4      	; 0x2e78 <vfprintf+0x5d6>
    2e74:	20 e1       	ldi	r18, 0x10	; 16
    2e76:	32 e0       	ldi	r19, 0x02	; 2
    2e78:	56 01       	movw	r10, r12
    2e7a:	07 ff       	sbrs	r16, 7
    2e7c:	09 c0       	rjmp	.+18     	; 0x2e90 <vfprintf+0x5ee>
    2e7e:	f4 e0       	ldi	r31, 0x04	; 4
    2e80:	af 0e       	add	r10, r31
    2e82:	b1 1c       	adc	r11, r1
    2e84:	f6 01       	movw	r30, r12
    2e86:	60 81       	ld	r22, Z
    2e88:	71 81       	ldd	r23, Z+1	; 0x01
    2e8a:	82 81       	ldd	r24, Z+2	; 0x02
    2e8c:	93 81       	ldd	r25, Z+3	; 0x03
    2e8e:	08 c0       	rjmp	.+16     	; 0x2ea0 <vfprintf+0x5fe>
    2e90:	f2 e0       	ldi	r31, 0x02	; 2
    2e92:	af 0e       	add	r10, r31
    2e94:	b1 1c       	adc	r11, r1
    2e96:	f6 01       	movw	r30, r12
    2e98:	60 81       	ld	r22, Z
    2e9a:	71 81       	ldd	r23, Z+1	; 0x01
    2e9c:	80 e0       	ldi	r24, 0x00	; 0
    2e9e:	90 e0       	ldi	r25, 0x00	; 0
    2ea0:	a4 01       	movw	r20, r8
    2ea2:	0e 94 72 20 	call	0x40e4	; 0x40e4 <__ultoa_invert>
    2ea6:	c8 2e       	mov	r12, r24
    2ea8:	c8 18       	sub	r12, r8
    2eaa:	0f 77       	andi	r16, 0x7F	; 127
    2eac:	06 ff       	sbrs	r16, 6
    2eae:	0b c0       	rjmp	.+22     	; 0x2ec6 <vfprintf+0x624>
    2eb0:	20 2f       	mov	r18, r16
    2eb2:	2e 7f       	andi	r18, 0xFE	; 254
    2eb4:	c1 16       	cp	r12, r17
    2eb6:	50 f4       	brcc	.+20     	; 0x2ecc <vfprintf+0x62a>
    2eb8:	04 ff       	sbrs	r16, 4
    2eba:	0a c0       	rjmp	.+20     	; 0x2ed0 <vfprintf+0x62e>
    2ebc:	02 fd       	sbrc	r16, 2
    2ebe:	08 c0       	rjmp	.+16     	; 0x2ed0 <vfprintf+0x62e>
    2ec0:	20 2f       	mov	r18, r16
    2ec2:	2e 7e       	andi	r18, 0xEE	; 238
    2ec4:	05 c0       	rjmp	.+10     	; 0x2ed0 <vfprintf+0x62e>
    2ec6:	dc 2c       	mov	r13, r12
    2ec8:	20 2f       	mov	r18, r16
    2eca:	03 c0       	rjmp	.+6      	; 0x2ed2 <vfprintf+0x630>
    2ecc:	dc 2c       	mov	r13, r12
    2ece:	01 c0       	rjmp	.+2      	; 0x2ed2 <vfprintf+0x630>
    2ed0:	d1 2e       	mov	r13, r17
    2ed2:	24 ff       	sbrs	r18, 4
    2ed4:	0d c0       	rjmp	.+26     	; 0x2ef0 <vfprintf+0x64e>
    2ed6:	fe 01       	movw	r30, r28
    2ed8:	ec 0d       	add	r30, r12
    2eda:	f1 1d       	adc	r31, r1
    2edc:	80 81       	ld	r24, Z
    2ede:	80 33       	cpi	r24, 0x30	; 48
    2ee0:	11 f4       	brne	.+4      	; 0x2ee6 <vfprintf+0x644>
    2ee2:	29 7e       	andi	r18, 0xE9	; 233
    2ee4:	09 c0       	rjmp	.+18     	; 0x2ef8 <vfprintf+0x656>
    2ee6:	22 ff       	sbrs	r18, 2
    2ee8:	06 c0       	rjmp	.+12     	; 0x2ef6 <vfprintf+0x654>
    2eea:	d3 94       	inc	r13
    2eec:	d3 94       	inc	r13
    2eee:	04 c0       	rjmp	.+8      	; 0x2ef8 <vfprintf+0x656>
    2ef0:	82 2f       	mov	r24, r18
    2ef2:	86 78       	andi	r24, 0x86	; 134
    2ef4:	09 f0       	breq	.+2      	; 0x2ef8 <vfprintf+0x656>
    2ef6:	d3 94       	inc	r13
    2ef8:	23 fd       	sbrc	r18, 3
    2efa:	13 c0       	rjmp	.+38     	; 0x2f22 <vfprintf+0x680>
    2efc:	20 ff       	sbrs	r18, 0
    2efe:	06 c0       	rjmp	.+12     	; 0x2f0c <vfprintf+0x66a>
    2f00:	1c 2d       	mov	r17, r12
    2f02:	d5 14       	cp	r13, r5
    2f04:	18 f4       	brcc	.+6      	; 0x2f0c <vfprintf+0x66a>
    2f06:	15 0d       	add	r17, r5
    2f08:	1d 19       	sub	r17, r13
    2f0a:	d5 2c       	mov	r13, r5
    2f0c:	d5 14       	cp	r13, r5
    2f0e:	68 f4       	brcc	.+26     	; 0x2f2a <vfprintf+0x688>
    2f10:	b7 01       	movw	r22, r14
    2f12:	80 e2       	ldi	r24, 0x20	; 32
    2f14:	90 e0       	ldi	r25, 0x00	; 0
    2f16:	2b 8b       	std	Y+19, r18	; 0x13
    2f18:	0e 94 c5 1f 	call	0x3f8a	; 0x3f8a <fputc>
    2f1c:	d3 94       	inc	r13
    2f1e:	2b 89       	ldd	r18, Y+19	; 0x13
    2f20:	f5 cf       	rjmp	.-22     	; 0x2f0c <vfprintf+0x66a>
    2f22:	d5 14       	cp	r13, r5
    2f24:	10 f4       	brcc	.+4      	; 0x2f2a <vfprintf+0x688>
    2f26:	5d 18       	sub	r5, r13
    2f28:	01 c0       	rjmp	.+2      	; 0x2f2c <vfprintf+0x68a>
    2f2a:	51 2c       	mov	r5, r1
    2f2c:	24 ff       	sbrs	r18, 4
    2f2e:	12 c0       	rjmp	.+36     	; 0x2f54 <vfprintf+0x6b2>
    2f30:	b7 01       	movw	r22, r14
    2f32:	80 e3       	ldi	r24, 0x30	; 48
    2f34:	90 e0       	ldi	r25, 0x00	; 0
    2f36:	2b 8b       	std	Y+19, r18	; 0x13
    2f38:	0e 94 c5 1f 	call	0x3f8a	; 0x3f8a <fputc>
    2f3c:	2b 89       	ldd	r18, Y+19	; 0x13
    2f3e:	22 ff       	sbrs	r18, 2
    2f40:	17 c0       	rjmp	.+46     	; 0x2f70 <vfprintf+0x6ce>
    2f42:	21 ff       	sbrs	r18, 1
    2f44:	03 c0       	rjmp	.+6      	; 0x2f4c <vfprintf+0x6aa>
    2f46:	88 e5       	ldi	r24, 0x58	; 88
    2f48:	90 e0       	ldi	r25, 0x00	; 0
    2f4a:	02 c0       	rjmp	.+4      	; 0x2f50 <vfprintf+0x6ae>
    2f4c:	88 e7       	ldi	r24, 0x78	; 120
    2f4e:	90 e0       	ldi	r25, 0x00	; 0
    2f50:	b7 01       	movw	r22, r14
    2f52:	0c c0       	rjmp	.+24     	; 0x2f6c <vfprintf+0x6ca>
    2f54:	82 2f       	mov	r24, r18
    2f56:	86 78       	andi	r24, 0x86	; 134
    2f58:	59 f0       	breq	.+22     	; 0x2f70 <vfprintf+0x6ce>
    2f5a:	21 fd       	sbrc	r18, 1
    2f5c:	02 c0       	rjmp	.+4      	; 0x2f62 <vfprintf+0x6c0>
    2f5e:	80 e2       	ldi	r24, 0x20	; 32
    2f60:	01 c0       	rjmp	.+2      	; 0x2f64 <vfprintf+0x6c2>
    2f62:	8b e2       	ldi	r24, 0x2B	; 43
    2f64:	27 fd       	sbrc	r18, 7
    2f66:	8d e2       	ldi	r24, 0x2D	; 45
    2f68:	b7 01       	movw	r22, r14
    2f6a:	90 e0       	ldi	r25, 0x00	; 0
    2f6c:	0e 94 c5 1f 	call	0x3f8a	; 0x3f8a <fputc>
    2f70:	c1 16       	cp	r12, r17
    2f72:	38 f4       	brcc	.+14     	; 0x2f82 <vfprintf+0x6e0>
    2f74:	b7 01       	movw	r22, r14
    2f76:	80 e3       	ldi	r24, 0x30	; 48
    2f78:	90 e0       	ldi	r25, 0x00	; 0
    2f7a:	0e 94 c5 1f 	call	0x3f8a	; 0x3f8a <fputc>
    2f7e:	11 50       	subi	r17, 0x01	; 1
    2f80:	f7 cf       	rjmp	.-18     	; 0x2f70 <vfprintf+0x6ce>
    2f82:	ca 94       	dec	r12
    2f84:	f4 01       	movw	r30, r8
    2f86:	ec 0d       	add	r30, r12
    2f88:	f1 1d       	adc	r31, r1
    2f8a:	80 81       	ld	r24, Z
    2f8c:	b7 01       	movw	r22, r14
    2f8e:	90 e0       	ldi	r25, 0x00	; 0
    2f90:	fc d7       	rcall	.+4088   	; 0x3f8a <fputc>
    2f92:	c1 10       	cpse	r12, r1
    2f94:	f6 cf       	rjmp	.-20     	; 0x2f82 <vfprintf+0x6e0>
    2f96:	55 20       	and	r5, r5
    2f98:	09 f4       	brne	.+2      	; 0x2f9c <vfprintf+0x6fa>
    2f9a:	c3 cc       	rjmp	.-1658   	; 0x2922 <vfprintf+0x80>
    2f9c:	b7 01       	movw	r22, r14
    2f9e:	80 e2       	ldi	r24, 0x20	; 32
    2fa0:	90 e0       	ldi	r25, 0x00	; 0
    2fa2:	f3 d7       	rcall	.+4070   	; 0x3f8a <fputc>
    2fa4:	5a 94       	dec	r5
    2fa6:	f7 cf       	rjmp	.-18     	; 0x2f96 <vfprintf+0x6f4>
    2fa8:	f7 01       	movw	r30, r14
    2faa:	86 81       	ldd	r24, Z+6	; 0x06
    2fac:	97 81       	ldd	r25, Z+7	; 0x07
    2fae:	02 c0       	rjmp	.+4      	; 0x2fb4 <vfprintf+0x712>
    2fb0:	8f ef       	ldi	r24, 0xFF	; 255
    2fb2:	9f ef       	ldi	r25, 0xFF	; 255
    2fb4:	63 96       	adiw	r28, 0x13	; 19
    2fb6:	0f b6       	in	r0, 0x3f	; 63
    2fb8:	f8 94       	cli
    2fba:	de bf       	out	0x3e, r29	; 62
    2fbc:	0f be       	out	0x3f, r0	; 63
    2fbe:	cd bf       	out	0x3d, r28	; 61
    2fc0:	df 91       	pop	r29
    2fc2:	cf 91       	pop	r28
    2fc4:	1f 91       	pop	r17
    2fc6:	0f 91       	pop	r16
    2fc8:	ff 90       	pop	r15
    2fca:	ef 90       	pop	r14
    2fcc:	df 90       	pop	r13
    2fce:	cf 90       	pop	r12
    2fd0:	bf 90       	pop	r11
    2fd2:	af 90       	pop	r10
    2fd4:	9f 90       	pop	r9
    2fd6:	8f 90       	pop	r8
    2fd8:	7f 90       	pop	r7
    2fda:	6f 90       	pop	r6
    2fdc:	5f 90       	pop	r5
    2fde:	4f 90       	pop	r4
    2fe0:	3f 90       	pop	r3
    2fe2:	2f 90       	pop	r2
    2fe4:	08 95       	ret

00002fe6 <putval>:
    2fe6:	20 fd       	sbrc	r18, 0
    2fe8:	09 c0       	rjmp	.+18     	; 0x2ffc <putval+0x16>
    2fea:	fc 01       	movw	r30, r24
    2fec:	23 fd       	sbrc	r18, 3
    2fee:	05 c0       	rjmp	.+10     	; 0x2ffa <putval+0x14>
    2ff0:	22 ff       	sbrs	r18, 2
    2ff2:	02 c0       	rjmp	.+4      	; 0x2ff8 <putval+0x12>
    2ff4:	73 83       	std	Z+3, r23	; 0x03
    2ff6:	62 83       	std	Z+2, r22	; 0x02
    2ff8:	51 83       	std	Z+1, r21	; 0x01
    2ffa:	40 83       	st	Z, r20
    2ffc:	08 95       	ret

00002ffe <mulacc>:
    2ffe:	44 fd       	sbrc	r20, 4
    3000:	10 c0       	rjmp	.+32     	; 0x3022 <mulacc+0x24>
    3002:	46 fd       	sbrc	r20, 6
    3004:	10 c0       	rjmp	.+32     	; 0x3026 <mulacc+0x28>
    3006:	db 01       	movw	r26, r22
    3008:	fc 01       	movw	r30, r24
    300a:	aa 0f       	add	r26, r26
    300c:	bb 1f       	adc	r27, r27
    300e:	ee 1f       	adc	r30, r30
    3010:	ff 1f       	adc	r31, r31
    3012:	10 94       	com	r1
    3014:	d1 f7       	brne	.-12     	; 0x300a <mulacc+0xc>
    3016:	6a 0f       	add	r22, r26
    3018:	7b 1f       	adc	r23, r27
    301a:	8e 1f       	adc	r24, r30
    301c:	9f 1f       	adc	r25, r31
    301e:	31 e0       	ldi	r19, 0x01	; 1
    3020:	03 c0       	rjmp	.+6      	; 0x3028 <mulacc+0x2a>
    3022:	33 e0       	ldi	r19, 0x03	; 3
    3024:	01 c0       	rjmp	.+2      	; 0x3028 <mulacc+0x2a>
    3026:	34 e0       	ldi	r19, 0x04	; 4
    3028:	66 0f       	add	r22, r22
    302a:	77 1f       	adc	r23, r23
    302c:	88 1f       	adc	r24, r24
    302e:	99 1f       	adc	r25, r25
    3030:	31 50       	subi	r19, 0x01	; 1
    3032:	d1 f7       	brne	.-12     	; 0x3028 <mulacc+0x2a>
    3034:	62 0f       	add	r22, r18
    3036:	71 1d       	adc	r23, r1
    3038:	81 1d       	adc	r24, r1
    303a:	91 1d       	adc	r25, r1
    303c:	08 95       	ret

0000303e <skip_spaces>:
    303e:	0f 93       	push	r16
    3040:	1f 93       	push	r17
    3042:	cf 93       	push	r28
    3044:	df 93       	push	r29
    3046:	8c 01       	movw	r16, r24
    3048:	c8 01       	movw	r24, r16
    304a:	61 d7       	rcall	.+3778   	; 0x3f0e <fgetc>
    304c:	ec 01       	movw	r28, r24
    304e:	97 fd       	sbrc	r25, 7
    3050:	07 c0       	rjmp	.+14     	; 0x3060 <skip_spaces+0x22>
    3052:	db d6       	rcall	.+3510   	; 0x3e0a <isspace>
    3054:	89 2b       	or	r24, r25
    3056:	c1 f7       	brne	.-16     	; 0x3048 <skip_spaces+0xa>
    3058:	b8 01       	movw	r22, r16
    305a:	ce 01       	movw	r24, r28
    305c:	0e 94 59 20 	call	0x40b2	; 0x40b2 <ungetc>
    3060:	ce 01       	movw	r24, r28
    3062:	df 91       	pop	r29
    3064:	cf 91       	pop	r28
    3066:	1f 91       	pop	r17
    3068:	0f 91       	pop	r16
    306a:	08 95       	ret

0000306c <conv_int>:
    306c:	6f 92       	push	r6
    306e:	7f 92       	push	r7
    3070:	9f 92       	push	r9
    3072:	af 92       	push	r10
    3074:	bf 92       	push	r11
    3076:	cf 92       	push	r12
    3078:	df 92       	push	r13
    307a:	ef 92       	push	r14
    307c:	ff 92       	push	r15
    307e:	0f 93       	push	r16
    3080:	1f 93       	push	r17
    3082:	cf 93       	push	r28
    3084:	df 93       	push	r29
    3086:	1f 92       	push	r1
    3088:	cd b7       	in	r28, 0x3d	; 61
    308a:	de b7       	in	r29, 0x3e	; 62
    308c:	8c 01       	movw	r16, r24
    308e:	3b 01       	movw	r6, r22
    3090:	5a 01       	movw	r10, r20
    3092:	29 83       	std	Y+1, r18	; 0x01
    3094:	3c d7       	rcall	.+3704   	; 0x3f0e <fgetc>
    3096:	ac 01       	movw	r20, r24
    3098:	55 27       	eor	r21, r21
    309a:	29 81       	ldd	r18, Y+1	; 0x01
    309c:	4b 32       	cpi	r20, 0x2B	; 43
    309e:	51 05       	cpc	r21, r1
    30a0:	21 f0       	breq	.+8      	; 0x30aa <conv_int+0x3e>
    30a2:	4d 32       	cpi	r20, 0x2D	; 45
    30a4:	51 05       	cpc	r21, r1
    30a6:	79 f4       	brne	.+30     	; 0x30c6 <conv_int+0x5a>
    30a8:	20 68       	ori	r18, 0x80	; 128
    30aa:	31 e0       	ldi	r19, 0x01	; 1
    30ac:	63 1a       	sub	r6, r19
    30ae:	71 08       	sbc	r7, r1
    30b0:	61 14       	cp	r6, r1
    30b2:	71 04       	cpc	r7, r1
    30b4:	11 f4       	brne	.+4      	; 0x30ba <conv_int+0x4e>
    30b6:	80 e0       	ldi	r24, 0x00	; 0
    30b8:	78 c0       	rjmp	.+240    	; 0x31aa <conv_int+0x13e>
    30ba:	c8 01       	movw	r24, r16
    30bc:	29 83       	std	Y+1, r18	; 0x01
    30be:	27 d7       	rcall	.+3662   	; 0x3f0e <fgetc>
    30c0:	29 81       	ldd	r18, Y+1	; 0x01
    30c2:	97 fd       	sbrc	r25, 7
    30c4:	f8 cf       	rjmp	.-16     	; 0x30b6 <conv_int+0x4a>
    30c6:	e2 2f       	mov	r30, r18
    30c8:	ed 7f       	andi	r30, 0xFD	; 253
    30ca:	9e 2e       	mov	r9, r30
    30cc:	32 2f       	mov	r19, r18
    30ce:	30 73       	andi	r19, 0x30	; 48
    30d0:	69 f5       	brne	.+90     	; 0x312c <conv_int+0xc0>
    30d2:	80 33       	cpi	r24, 0x30	; 48
    30d4:	59 f5       	brne	.+86     	; 0x312c <conv_int+0xc0>
    30d6:	73 01       	movw	r14, r6
    30d8:	f1 e0       	ldi	r31, 0x01	; 1
    30da:	ef 1a       	sub	r14, r31
    30dc:	f1 08       	sbc	r15, r1
    30de:	e1 14       	cp	r14, r1
    30e0:	f1 04       	cpc	r15, r1
    30e2:	09 f4       	brne	.+2      	; 0x30e6 <conv_int+0x7a>
    30e4:	4f c0       	rjmp	.+158    	; 0x3184 <conv_int+0x118>
    30e6:	c8 01       	movw	r24, r16
    30e8:	29 83       	std	Y+1, r18	; 0x01
    30ea:	11 d7       	rcall	.+3618   	; 0x3f0e <fgetc>
    30ec:	29 81       	ldd	r18, Y+1	; 0x01
    30ee:	97 fd       	sbrc	r25, 7
    30f0:	49 c0       	rjmp	.+146    	; 0x3184 <conv_int+0x118>
    30f2:	38 2f       	mov	r19, r24
    30f4:	3f 7d       	andi	r19, 0xDF	; 223
    30f6:	38 35       	cpi	r19, 0x58	; 88
    30f8:	79 f4       	brne	.+30     	; 0x3118 <conv_int+0xac>
    30fa:	29 2d       	mov	r18, r9
    30fc:	22 64       	ori	r18, 0x42	; 66
    30fe:	92 2e       	mov	r9, r18
    3100:	32 e0       	ldi	r19, 0x02	; 2
    3102:	63 1a       	sub	r6, r19
    3104:	71 08       	sbc	r7, r1
    3106:	61 14       	cp	r6, r1
    3108:	71 04       	cpc	r7, r1
    310a:	09 f4       	brne	.+2      	; 0x310e <conv_int+0xa2>
    310c:	3b c0       	rjmp	.+118    	; 0x3184 <conv_int+0x118>
    310e:	c8 01       	movw	r24, r16
    3110:	fe d6       	rcall	.+3580   	; 0x3f0e <fgetc>
    3112:	97 ff       	sbrs	r25, 7
    3114:	0b c0       	rjmp	.+22     	; 0x312c <conv_int+0xc0>
    3116:	36 c0       	rjmp	.+108    	; 0x3184 <conv_int+0x118>
    3118:	26 ff       	sbrs	r18, 6
    311a:	04 c0       	rjmp	.+8      	; 0x3124 <conv_int+0xb8>
    311c:	e9 2d       	mov	r30, r9
    311e:	e2 60       	ori	r30, 0x02	; 2
    3120:	9e 2e       	mov	r9, r30
    3122:	03 c0       	rjmp	.+6      	; 0x312a <conv_int+0xbe>
    3124:	f9 2d       	mov	r31, r9
    3126:	f2 61       	ori	r31, 0x12	; 18
    3128:	9f 2e       	mov	r9, r31
    312a:	37 01       	movw	r6, r14
    312c:	c1 2c       	mov	r12, r1
    312e:	d1 2c       	mov	r13, r1
    3130:	76 01       	movw	r14, r12
    3132:	20 ed       	ldi	r18, 0xD0	; 208
    3134:	28 0f       	add	r18, r24
    3136:	28 30       	cpi	r18, 0x08	; 8
    3138:	78 f0       	brcs	.+30     	; 0x3158 <conv_int+0xec>
    313a:	94 fe       	sbrs	r9, 4
    313c:	03 c0       	rjmp	.+6      	; 0x3144 <conv_int+0xd8>
    313e:	b8 01       	movw	r22, r16
    3140:	b8 d7       	rcall	.+3952   	; 0x40b2 <ungetc>
    3142:	1d c0       	rjmp	.+58     	; 0x317e <conv_int+0x112>
    3144:	2a 30       	cpi	r18, 0x0A	; 10
    3146:	40 f0       	brcs	.+16     	; 0x3158 <conv_int+0xec>
    3148:	96 fe       	sbrs	r9, 6
    314a:	f9 cf       	rjmp	.-14     	; 0x313e <conv_int+0xd2>
    314c:	2f 7d       	andi	r18, 0xDF	; 223
    314e:	3f ee       	ldi	r19, 0xEF	; 239
    3150:	32 0f       	add	r19, r18
    3152:	36 30       	cpi	r19, 0x06	; 6
    3154:	a0 f7       	brcc	.-24     	; 0x313e <conv_int+0xd2>
    3156:	27 50       	subi	r18, 0x07	; 7
    3158:	49 2d       	mov	r20, r9
    315a:	c7 01       	movw	r24, r14
    315c:	b6 01       	movw	r22, r12
    315e:	4f df       	rcall	.-354    	; 0x2ffe <mulacc>
    3160:	6b 01       	movw	r12, r22
    3162:	7c 01       	movw	r14, r24
    3164:	29 2d       	mov	r18, r9
    3166:	22 60       	ori	r18, 0x02	; 2
    3168:	92 2e       	mov	r9, r18
    316a:	31 e0       	ldi	r19, 0x01	; 1
    316c:	63 1a       	sub	r6, r19
    316e:	71 08       	sbc	r7, r1
    3170:	61 14       	cp	r6, r1
    3172:	71 04       	cpc	r7, r1
    3174:	51 f0       	breq	.+20     	; 0x318a <conv_int+0x11e>
    3176:	c8 01       	movw	r24, r16
    3178:	ca d6       	rcall	.+3476   	; 0x3f0e <fgetc>
    317a:	97 ff       	sbrs	r25, 7
    317c:	da cf       	rjmp	.-76     	; 0x3132 <conv_int+0xc6>
    317e:	91 fc       	sbrc	r9, 1
    3180:	04 c0       	rjmp	.+8      	; 0x318a <conv_int+0x11e>
    3182:	99 cf       	rjmp	.-206    	; 0x30b6 <conv_int+0x4a>
    3184:	c1 2c       	mov	r12, r1
    3186:	d1 2c       	mov	r13, r1
    3188:	76 01       	movw	r14, r12
    318a:	97 fe       	sbrs	r9, 7
    318c:	08 c0       	rjmp	.+16     	; 0x319e <conv_int+0x132>
    318e:	f0 94       	com	r15
    3190:	e0 94       	com	r14
    3192:	d0 94       	com	r13
    3194:	c0 94       	com	r12
    3196:	c1 1c       	adc	r12, r1
    3198:	d1 1c       	adc	r13, r1
    319a:	e1 1c       	adc	r14, r1
    319c:	f1 1c       	adc	r15, r1
    319e:	29 2d       	mov	r18, r9
    31a0:	b7 01       	movw	r22, r14
    31a2:	a6 01       	movw	r20, r12
    31a4:	c5 01       	movw	r24, r10
    31a6:	1f df       	rcall	.-450    	; 0x2fe6 <putval>
    31a8:	81 e0       	ldi	r24, 0x01	; 1
    31aa:	0f 90       	pop	r0
    31ac:	df 91       	pop	r29
    31ae:	cf 91       	pop	r28
    31b0:	1f 91       	pop	r17
    31b2:	0f 91       	pop	r16
    31b4:	ff 90       	pop	r15
    31b6:	ef 90       	pop	r14
    31b8:	df 90       	pop	r13
    31ba:	cf 90       	pop	r12
    31bc:	bf 90       	pop	r11
    31be:	af 90       	pop	r10
    31c0:	9f 90       	pop	r9
    31c2:	7f 90       	pop	r7
    31c4:	6f 90       	pop	r6
    31c6:	08 95       	ret

000031c8 <conv_brk>:
    31c8:	4f 92       	push	r4
    31ca:	5f 92       	push	r5
    31cc:	6f 92       	push	r6
    31ce:	7f 92       	push	r7
    31d0:	8f 92       	push	r8
    31d2:	9f 92       	push	r9
    31d4:	af 92       	push	r10
    31d6:	bf 92       	push	r11
    31d8:	cf 92       	push	r12
    31da:	df 92       	push	r13
    31dc:	ef 92       	push	r14
    31de:	ff 92       	push	r15
    31e0:	0f 93       	push	r16
    31e2:	1f 93       	push	r17
    31e4:	cf 93       	push	r28
    31e6:	df 93       	push	r29
    31e8:	cd b7       	in	r28, 0x3d	; 61
    31ea:	de b7       	in	r29, 0x3e	; 62
    31ec:	a0 97       	sbiw	r28, 0x20	; 32
    31ee:	0f b6       	in	r0, 0x3f	; 63
    31f0:	f8 94       	cli
    31f2:	de bf       	out	0x3e, r29	; 62
    31f4:	0f be       	out	0x3f, r0	; 63
    31f6:	cd bf       	out	0x3d, r28	; 61
    31f8:	5c 01       	movw	r10, r24
    31fa:	4b 01       	movw	r8, r22
    31fc:	7a 01       	movw	r14, r20
    31fe:	8e 01       	movw	r16, r28
    3200:	0f 5f       	subi	r16, 0xFF	; 255
    3202:	1f 4f       	sbci	r17, 0xFF	; 255
    3204:	68 01       	movw	r12, r16
    3206:	80 e2       	ldi	r24, 0x20	; 32
    3208:	f8 01       	movw	r30, r16
    320a:	11 92       	st	Z+, r1
    320c:	8a 95       	dec	r24
    320e:	e9 f7       	brne	.-6      	; 0x320a <conv_brk+0x42>
    3210:	f5 01       	movw	r30, r10
    3212:	63 80       	ldd	r6, Z+3	; 0x03
    3214:	80 e0       	ldi	r24, 0x00	; 0
    3216:	90 e0       	ldi	r25, 0x00	; 0
    3218:	71 2c       	mov	r7, r1
    321a:	41 2c       	mov	r4, r1
    321c:	b0 e0       	ldi	r27, 0x00	; 0
    321e:	41 e0       	ldi	r20, 0x01	; 1
    3220:	50 e0       	ldi	r21, 0x00	; 0
    3222:	f9 01       	movw	r30, r18
    3224:	63 fc       	sbrc	r6, 3
    3226:	55 90       	lpm	r5, Z+
    3228:	63 fe       	sbrs	r6, 3
    322a:	51 90       	ld	r5, Z+
    322c:	8f 01       	movw	r16, r30
    322e:	a5 2d       	mov	r26, r5
    3230:	9f 01       	movw	r18, r30
    3232:	51 10       	cpse	r5, r1
    3234:	03 c0       	rjmp	.+6      	; 0x323c <conv_brk+0x74>
    3236:	80 e0       	ldi	r24, 0x00	; 0
    3238:	90 e0       	ldi	r25, 0x00	; 0
    323a:	7d c0       	rjmp	.+250    	; 0x3336 <conv_brk+0x16e>
    323c:	fe e5       	ldi	r31, 0x5E	; 94
    323e:	5f 12       	cpse	r5, r31
    3240:	02 c0       	rjmp	.+4      	; 0x3246 <conv_brk+0x7e>
    3242:	00 97       	sbiw	r24, 0x00	; 0
    3244:	61 f1       	breq	.+88     	; 0x329e <conv_brk+0xd6>
    3246:	6b 2f       	mov	r22, r27
    3248:	70 e0       	ldi	r23, 0x00	; 0
    324a:	68 17       	cp	r22, r24
    324c:	79 07       	cpc	r23, r25
    324e:	4c f4       	brge	.+18     	; 0x3262 <conv_brk+0x9a>
    3250:	6d e5       	ldi	r22, 0x5D	; 93
    3252:	56 16       	cp	r5, r22
    3254:	61 f1       	breq	.+88     	; 0x32ae <conv_brk+0xe6>
    3256:	ed e2       	ldi	r30, 0x2D	; 45
    3258:	5e 12       	cpse	r5, r30
    325a:	03 c0       	rjmp	.+6      	; 0x3262 <conv_brk+0x9a>
    325c:	44 20       	and	r4, r4
    325e:	09 f1       	breq	.+66     	; 0x32a2 <conv_brk+0xda>
    3260:	03 c0       	rjmp	.+6      	; 0x3268 <conv_brk+0xa0>
    3262:	41 10       	cpse	r4, r1
    3264:	01 c0       	rjmp	.+2      	; 0x3268 <conv_brk+0xa0>
    3266:	75 2c       	mov	r7, r5
    3268:	6a 2f       	mov	r22, r26
    326a:	66 95       	lsr	r22
    326c:	66 95       	lsr	r22
    326e:	66 95       	lsr	r22
    3270:	f6 01       	movw	r30, r12
    3272:	e6 0f       	add	r30, r22
    3274:	f1 1d       	adc	r31, r1
    3276:	6a 2f       	mov	r22, r26
    3278:	67 70       	andi	r22, 0x07	; 7
    327a:	8a 01       	movw	r16, r20
    327c:	02 c0       	rjmp	.+4      	; 0x3282 <conv_brk+0xba>
    327e:	00 0f       	add	r16, r16
    3280:	11 1f       	adc	r17, r17
    3282:	6a 95       	dec	r22
    3284:	e2 f7       	brpl	.-8      	; 0x327e <conv_brk+0xb6>
    3286:	b8 01       	movw	r22, r16
    3288:	70 81       	ld	r23, Z
    328a:	76 2b       	or	r23, r22
    328c:	70 83       	st	Z, r23
    328e:	a7 15       	cp	r26, r7
    3290:	59 f0       	breq	.+22     	; 0x32a8 <conv_brk+0xe0>
    3292:	a7 15       	cp	r26, r7
    3294:	10 f4       	brcc	.+4      	; 0x329a <conv_brk+0xd2>
    3296:	af 5f       	subi	r26, 0xFF	; 255
    3298:	e7 cf       	rjmp	.-50     	; 0x3268 <conv_brk+0xa0>
    329a:	a1 50       	subi	r26, 0x01	; 1
    329c:	e5 cf       	rjmp	.-54     	; 0x3268 <conv_brk+0xa0>
    329e:	b1 e0       	ldi	r27, 0x01	; 1
    32a0:	04 c0       	rjmp	.+8      	; 0x32aa <conv_brk+0xe2>
    32a2:	44 24       	eor	r4, r4
    32a4:	43 94       	inc	r4
    32a6:	01 c0       	rjmp	.+2      	; 0x32aa <conv_brk+0xe2>
    32a8:	41 2c       	mov	r4, r1
    32aa:	01 96       	adiw	r24, 0x01	; 1
    32ac:	ba cf       	rjmp	.-140    	; 0x3222 <conv_brk+0x5a>
    32ae:	44 20       	and	r4, r4
    32b0:	19 f0       	breq	.+6      	; 0x32b8 <conv_brk+0xf0>
    32b2:	8e 81       	ldd	r24, Y+6	; 0x06
    32b4:	80 62       	ori	r24, 0x20	; 32
    32b6:	8e 83       	std	Y+6, r24	; 0x06
    32b8:	b1 11       	cpse	r27, r1
    32ba:	03 c0       	rjmp	.+6      	; 0x32c2 <conv_brk+0xfa>
    32bc:	77 24       	eor	r7, r7
    32be:	73 94       	inc	r7
    32c0:	19 c0       	rjmp	.+50     	; 0x32f4 <conv_brk+0x12c>
    32c2:	f6 01       	movw	r30, r12
    32c4:	ce 01       	movw	r24, r28
    32c6:	81 96       	adiw	r24, 0x21	; 33
    32c8:	20 81       	ld	r18, Z
    32ca:	20 95       	com	r18
    32cc:	21 93       	st	Z+, r18
    32ce:	e8 17       	cp	r30, r24
    32d0:	f9 07       	cpc	r31, r25
    32d2:	d1 f7       	brne	.-12     	; 0x32c8 <conv_brk+0x100>
    32d4:	f3 cf       	rjmp	.-26     	; 0x32bc <conv_brk+0xf4>
    32d6:	e1 14       	cp	r14, r1
    32d8:	f1 04       	cpc	r15, r1
    32da:	29 f0       	breq	.+10     	; 0x32e6 <conv_brk+0x11e>
    32dc:	f7 01       	movw	r30, r14
    32de:	80 83       	st	Z, r24
    32e0:	c7 01       	movw	r24, r14
    32e2:	01 96       	adiw	r24, 0x01	; 1
    32e4:	7c 01       	movw	r14, r24
    32e6:	91 e0       	ldi	r25, 0x01	; 1
    32e8:	89 1a       	sub	r8, r25
    32ea:	91 08       	sbc	r9, r1
    32ec:	81 14       	cp	r8, r1
    32ee:	91 04       	cpc	r9, r1
    32f0:	e1 f0       	breq	.+56     	; 0x332a <conv_brk+0x162>
    32f2:	71 2c       	mov	r7, r1
    32f4:	c5 01       	movw	r24, r10
    32f6:	0b d6       	rcall	.+3094   	; 0x3f0e <fgetc>
    32f8:	97 fd       	sbrc	r25, 7
    32fa:	15 c0       	rjmp	.+42     	; 0x3326 <conv_brk+0x15e>
    32fc:	28 2f       	mov	r18, r24
    32fe:	26 95       	lsr	r18
    3300:	26 95       	lsr	r18
    3302:	26 95       	lsr	r18
    3304:	f6 01       	movw	r30, r12
    3306:	e2 0f       	add	r30, r18
    3308:	f1 1d       	adc	r31, r1
    330a:	20 81       	ld	r18, Z
    330c:	30 e0       	ldi	r19, 0x00	; 0
    330e:	ac 01       	movw	r20, r24
    3310:	47 70       	andi	r20, 0x07	; 7
    3312:	55 27       	eor	r21, r21
    3314:	02 c0       	rjmp	.+4      	; 0x331a <conv_brk+0x152>
    3316:	35 95       	asr	r19
    3318:	27 95       	ror	r18
    331a:	4a 95       	dec	r20
    331c:	e2 f7       	brpl	.-8      	; 0x3316 <conv_brk+0x14e>
    331e:	20 fd       	sbrc	r18, 0
    3320:	da cf       	rjmp	.-76     	; 0x32d6 <conv_brk+0x10e>
    3322:	b5 01       	movw	r22, r10
    3324:	c6 d6       	rcall	.+3468   	; 0x40b2 <ungetc>
    3326:	71 10       	cpse	r7, r1
    3328:	86 cf       	rjmp	.-244    	; 0x3236 <conv_brk+0x6e>
    332a:	e1 14       	cp	r14, r1
    332c:	f1 04       	cpc	r15, r1
    332e:	11 f0       	breq	.+4      	; 0x3334 <conv_brk+0x16c>
    3330:	f7 01       	movw	r30, r14
    3332:	10 82       	st	Z, r1
    3334:	c8 01       	movw	r24, r16
    3336:	a0 96       	adiw	r28, 0x20	; 32
    3338:	0f b6       	in	r0, 0x3f	; 63
    333a:	f8 94       	cli
    333c:	de bf       	out	0x3e, r29	; 62
    333e:	0f be       	out	0x3f, r0	; 63
    3340:	cd bf       	out	0x3d, r28	; 61
    3342:	df 91       	pop	r29
    3344:	cf 91       	pop	r28
    3346:	1f 91       	pop	r17
    3348:	0f 91       	pop	r16
    334a:	ff 90       	pop	r15
    334c:	ef 90       	pop	r14
    334e:	df 90       	pop	r13
    3350:	cf 90       	pop	r12
    3352:	bf 90       	pop	r11
    3354:	af 90       	pop	r10
    3356:	9f 90       	pop	r9
    3358:	8f 90       	pop	r8
    335a:	7f 90       	pop	r7
    335c:	6f 90       	pop	r6
    335e:	5f 90       	pop	r5
    3360:	4f 90       	pop	r4
    3362:	08 95       	ret

00003364 <conv_flt>:
    3364:	2f 92       	push	r2
    3366:	3f 92       	push	r3
    3368:	4f 92       	push	r4
    336a:	5f 92       	push	r5
    336c:	6f 92       	push	r6
    336e:	7f 92       	push	r7
    3370:	9f 92       	push	r9
    3372:	af 92       	push	r10
    3374:	bf 92       	push	r11
    3376:	cf 92       	push	r12
    3378:	df 92       	push	r13
    337a:	ef 92       	push	r14
    337c:	ff 92       	push	r15
    337e:	0f 93       	push	r16
    3380:	1f 93       	push	r17
    3382:	cf 93       	push	r28
    3384:	df 93       	push	r29
    3386:	00 d0       	rcall	.+0      	; 0x3388 <conv_flt+0x24>
    3388:	00 d0       	rcall	.+0      	; 0x338a <conv_flt+0x26>
    338a:	00 d0       	rcall	.+0      	; 0x338c <conv_flt+0x28>
    338c:	cd b7       	in	r28, 0x3d	; 61
    338e:	de b7       	in	r29, 0x3e	; 62
    3390:	6c 01       	movw	r12, r24
    3392:	8b 01       	movw	r16, r22
    3394:	1a 01       	movw	r2, r20
    3396:	bb d5       	rcall	.+2934   	; 0x3f0e <fgetc>
    3398:	9e 83       	std	Y+6, r25	; 0x06
    339a:	8d 83       	std	Y+5, r24	; 0x05
    339c:	99 27       	eor	r25, r25
    339e:	8b 32       	cpi	r24, 0x2B	; 43
    33a0:	91 05       	cpc	r25, r1
    33a2:	29 f0       	breq	.+10     	; 0x33ae <conv_flt+0x4a>
    33a4:	8d 97       	sbiw	r24, 0x2d	; 45
    33a6:	91 f4       	brne	.+36     	; 0x33cc <conv_flt+0x68>
    33a8:	80 e8       	ldi	r24, 0x80	; 128
    33aa:	98 2e       	mov	r9, r24
    33ac:	01 c0       	rjmp	.+2      	; 0x33b0 <conv_flt+0x4c>
    33ae:	91 2c       	mov	r9, r1
    33b0:	01 50       	subi	r16, 0x01	; 1
    33b2:	11 09       	sbc	r17, r1
    33b4:	01 15       	cp	r16, r1
    33b6:	11 05       	cpc	r17, r1
    33b8:	11 f4       	brne	.+4      	; 0x33be <conv_flt+0x5a>
    33ba:	80 e0       	ldi	r24, 0x00	; 0
    33bc:	28 c1       	rjmp	.+592    	; 0x360e <conv_flt+0x2aa>
    33be:	c6 01       	movw	r24, r12
    33c0:	a6 d5       	rcall	.+2892   	; 0x3f0e <fgetc>
    33c2:	9e 83       	std	Y+6, r25	; 0x06
    33c4:	8d 83       	std	Y+5, r24	; 0x05
    33c6:	97 ff       	sbrs	r25, 7
    33c8:	02 c0       	rjmp	.+4      	; 0x33ce <conv_flt+0x6a>
    33ca:	f7 cf       	rjmp	.-18     	; 0x33ba <conv_flt+0x56>
    33cc:	91 2c       	mov	r9, r1
    33ce:	8d 81       	ldd	r24, Y+5	; 0x05
    33d0:	9e 81       	ldd	r25, Y+6	; 0x06
    33d2:	23 d5       	rcall	.+2630   	; 0x3e1a <tolower>
    33d4:	89 36       	cpi	r24, 0x69	; 105
    33d6:	91 05       	cpc	r25, r1
    33d8:	41 f0       	breq	.+16     	; 0x33ea <conv_flt+0x86>
    33da:	8e 36       	cpi	r24, 0x6E	; 110
    33dc:	91 05       	cpc	r25, r1
    33de:	c1 f5       	brne	.+112    	; 0x3450 <conv_flt+0xec>
    33e0:	b6 e1       	ldi	r27, 0x16	; 22
    33e2:	6b 2e       	mov	r6, r27
    33e4:	b1 e0       	ldi	r27, 0x01	; 1
    33e6:	7b 2e       	mov	r7, r27
    33e8:	04 c0       	rjmp	.+8      	; 0x33f2 <conv_flt+0x8e>
    33ea:	a9 e1       	ldi	r26, 0x19	; 25
    33ec:	6a 2e       	mov	r6, r26
    33ee:	a1 e0       	ldi	r26, 0x01	; 1
    33f0:	7a 2e       	mov	r7, r26
    33f2:	8f ef       	ldi	r24, 0xFF	; 255
    33f4:	68 1a       	sub	r6, r24
    33f6:	78 0a       	sbc	r7, r24
    33f8:	f3 01       	movw	r30, r6
    33fa:	31 97       	sbiw	r30, 0x01	; 1
    33fc:	b4 90       	lpm	r11, Z
    33fe:	bb 20       	and	r11, r11
    3400:	d9 f0       	breq	.+54     	; 0x3438 <conv_flt+0xd4>
    3402:	01 50       	subi	r16, 0x01	; 1
    3404:	11 09       	sbc	r17, r1
    3406:	01 15       	cp	r16, r1
    3408:	11 05       	cpc	r17, r1
    340a:	59 f0       	breq	.+22     	; 0x3422 <conv_flt+0xbe>
    340c:	c6 01       	movw	r24, r12
    340e:	7f d5       	rcall	.+2814   	; 0x3f0e <fgetc>
    3410:	7c 01       	movw	r14, r24
    3412:	97 fd       	sbrc	r25, 7
    3414:	06 c0       	rjmp	.+12     	; 0x3422 <conv_flt+0xbe>
    3416:	01 d5       	rcall	.+2562   	; 0x3e1a <tolower>
    3418:	b8 16       	cp	r11, r24
    341a:	59 f3       	breq	.-42     	; 0x33f2 <conv_flt+0x8e>
    341c:	b6 01       	movw	r22, r12
    341e:	c7 01       	movw	r24, r14
    3420:	48 d6       	rcall	.+3216   	; 0x40b2 <ungetc>
    3422:	2c e1       	ldi	r18, 0x1C	; 28
    3424:	62 16       	cp	r6, r18
    3426:	21 e0       	ldi	r18, 0x01	; 1
    3428:	72 06       	cpc	r7, r18
    342a:	09 f0       	breq	.+2      	; 0x342e <conv_flt+0xca>
    342c:	c6 cf       	rjmp	.-116    	; 0x33ba <conv_flt+0x56>
    342e:	80 e0       	ldi	r24, 0x00	; 0
    3430:	90 e0       	ldi	r25, 0x00	; 0
    3432:	a0 e8       	ldi	r26, 0x80	; 128
    3434:	bf e7       	ldi	r27, 0x7F	; 127
    3436:	09 c0       	rjmp	.+18     	; 0x344a <conv_flt+0xe6>
    3438:	99 e1       	ldi	r25, 0x19	; 25
    343a:	69 16       	cp	r6, r25
    343c:	91 e0       	ldi	r25, 0x01	; 1
    343e:	79 06       	cpc	r7, r25
    3440:	b1 f7       	brne	.-20     	; 0x342e <conv_flt+0xca>
    3442:	80 e0       	ldi	r24, 0x00	; 0
    3444:	90 e0       	ldi	r25, 0x00	; 0
    3446:	a0 ec       	ldi	r26, 0xC0	; 192
    3448:	bf e7       	ldi	r27, 0x7F	; 127
    344a:	bc 01       	movw	r22, r24
    344c:	cd 01       	movw	r24, r26
    344e:	cf c0       	rjmp	.+414    	; 0x35ee <conv_flt+0x28a>
    3450:	41 2c       	mov	r4, r1
    3452:	51 2c       	mov	r5, r1
    3454:	32 01       	movw	r6, r4
    3456:	e1 2c       	mov	r14, r1
    3458:	f1 2c       	mov	r15, r1
    345a:	2d 81       	ldd	r18, Y+5	; 0x05
    345c:	20 53       	subi	r18, 0x30	; 48
    345e:	2a 30       	cpi	r18, 0x0A	; 10
    3460:	20 f5       	brcc	.+72     	; 0x34aa <conv_flt+0x146>
    3462:	e9 2d       	mov	r30, r9
    3464:	e2 60       	ori	r30, 0x02	; 2
    3466:	be 2e       	mov	r11, r30
    3468:	89 2d       	mov	r24, r9
    346a:	88 70       	andi	r24, 0x08	; 8
    346c:	92 fe       	sbrs	r9, 2
    346e:	06 c0       	rjmp	.+12     	; 0x347c <conv_flt+0x118>
    3470:	81 11       	cpse	r24, r1
    3472:	22 c0       	rjmp	.+68     	; 0x34b8 <conv_flt+0x154>
    3474:	ff ef       	ldi	r31, 0xFF	; 255
    3476:	ef 1a       	sub	r14, r31
    3478:	ff 0a       	sbc	r15, r31
    347a:	1e c0       	rjmp	.+60     	; 0x34b8 <conv_flt+0x154>
    347c:	88 23       	and	r24, r24
    347e:	19 f0       	breq	.+6      	; 0x3486 <conv_flt+0x122>
    3480:	81 e0       	ldi	r24, 0x01	; 1
    3482:	e8 1a       	sub	r14, r24
    3484:	f1 08       	sbc	r15, r1
    3486:	40 e2       	ldi	r20, 0x20	; 32
    3488:	c3 01       	movw	r24, r6
    348a:	b2 01       	movw	r22, r4
    348c:	b8 dd       	rcall	.-1168   	; 0x2ffe <mulacc>
    348e:	2b 01       	movw	r4, r22
    3490:	3c 01       	movw	r6, r24
    3492:	98 e9       	ldi	r25, 0x98	; 152
    3494:	49 16       	cp	r4, r25
    3496:	99 e9       	ldi	r25, 0x99	; 153
    3498:	59 06       	cpc	r5, r25
    349a:	69 06       	cpc	r6, r25
    349c:	99 e1       	ldi	r25, 0x19	; 25
    349e:	79 06       	cpc	r7, r25
    34a0:	58 f0       	brcs	.+22     	; 0x34b8 <conv_flt+0x154>
    34a2:	e9 2d       	mov	r30, r9
    34a4:	e6 60       	ori	r30, 0x06	; 6
    34a6:	be 2e       	mov	r11, r30
    34a8:	07 c0       	rjmp	.+14     	; 0x34b8 <conv_flt+0x154>
    34aa:	2e 3f       	cpi	r18, 0xFE	; 254
    34ac:	99 f4       	brne	.+38     	; 0x34d4 <conv_flt+0x170>
    34ae:	93 fc       	sbrc	r9, 3
    34b0:	11 c0       	rjmp	.+34     	; 0x34d4 <conv_flt+0x170>
    34b2:	f9 2d       	mov	r31, r9
    34b4:	f8 60       	ori	r31, 0x08	; 8
    34b6:	bf 2e       	mov	r11, r31
    34b8:	01 50       	subi	r16, 0x01	; 1
    34ba:	11 09       	sbc	r17, r1
    34bc:	01 15       	cp	r16, r1
    34be:	11 05       	cpc	r17, r1
    34c0:	41 f0       	breq	.+16     	; 0x34d2 <conv_flt+0x16e>
    34c2:	c6 01       	movw	r24, r12
    34c4:	24 d5       	rcall	.+2632   	; 0x3f0e <fgetc>
    34c6:	9e 83       	std	Y+6, r25	; 0x06
    34c8:	8d 83       	std	Y+5, r24	; 0x05
    34ca:	9b 2c       	mov	r9, r11
    34cc:	97 fd       	sbrc	r25, 7
    34ce:	02 c0       	rjmp	.+4      	; 0x34d4 <conv_flt+0x170>
    34d0:	c4 cf       	rjmp	.-120    	; 0x345a <conv_flt+0xf6>
    34d2:	9b 2c       	mov	r9, r11
    34d4:	91 fe       	sbrs	r9, 1
    34d6:	71 cf       	rjmp	.-286    	; 0x33ba <conv_flt+0x56>
    34d8:	8d 81       	ldd	r24, Y+5	; 0x05
    34da:	8f 7d       	andi	r24, 0xDF	; 223
    34dc:	85 34       	cpi	r24, 0x45	; 69
    34de:	09 f0       	breq	.+2      	; 0x34e2 <conv_flt+0x17e>
    34e0:	52 c0       	rjmp	.+164    	; 0x3586 <conv_flt+0x222>
    34e2:	58 01       	movw	r10, r16
    34e4:	21 e0       	ldi	r18, 0x01	; 1
    34e6:	a2 1a       	sub	r10, r18
    34e8:	b1 08       	sbc	r11, r1
    34ea:	a1 14       	cp	r10, r1
    34ec:	b1 04       	cpc	r11, r1
    34ee:	09 f4       	brne	.+2      	; 0x34f2 <conv_flt+0x18e>
    34f0:	64 cf       	rjmp	.-312    	; 0x33ba <conv_flt+0x56>
    34f2:	c6 01       	movw	r24, r12
    34f4:	0c d5       	rcall	.+2584   	; 0x3f0e <fgetc>
    34f6:	9e 83       	std	Y+6, r25	; 0x06
    34f8:	8d 83       	std	Y+5, r24	; 0x05
    34fa:	97 fd       	sbrc	r25, 7
    34fc:	5e cf       	rjmp	.-324    	; 0x33ba <conv_flt+0x56>
    34fe:	99 27       	eor	r25, r25
    3500:	8b 32       	cpi	r24, 0x2B	; 43
    3502:	91 05       	cpc	r25, r1
    3504:	29 f0       	breq	.+10     	; 0x3510 <conv_flt+0x1ac>
    3506:	8d 97       	sbiw	r24, 0x2d	; 45
    3508:	79 f4       	brne	.+30     	; 0x3528 <conv_flt+0x1c4>
    350a:	89 2d       	mov	r24, r9
    350c:	80 61       	ori	r24, 0x10	; 16
    350e:	98 2e       	mov	r9, r24
    3510:	58 01       	movw	r10, r16
    3512:	92 e0       	ldi	r25, 0x02	; 2
    3514:	a9 1a       	sub	r10, r25
    3516:	b1 08       	sbc	r11, r1
    3518:	a1 14       	cp	r10, r1
    351a:	b1 04       	cpc	r11, r1
    351c:	09 f4       	brne	.+2      	; 0x3520 <conv_flt+0x1bc>
    351e:	4d cf       	rjmp	.-358    	; 0x33ba <conv_flt+0x56>
    3520:	c6 01       	movw	r24, r12
    3522:	f5 d4       	rcall	.+2538   	; 0x3f0e <fgetc>
    3524:	9e 83       	std	Y+6, r25	; 0x06
    3526:	8d 83       	std	Y+5, r24	; 0x05
    3528:	8d 81       	ldd	r24, Y+5	; 0x05
    352a:	9e 81       	ldd	r25, Y+6	; 0x06
    352c:	c0 97       	sbiw	r24, 0x30	; 48
    352e:	0a 97       	sbiw	r24, 0x0a	; 10
    3530:	08 f0       	brcs	.+2      	; 0x3534 <conv_flt+0x1d0>
    3532:	43 cf       	rjmp	.-378    	; 0x33ba <conv_flt+0x56>
    3534:	85 01       	movw	r16, r10
    3536:	a1 2c       	mov	r10, r1
    3538:	b1 2c       	mov	r11, r1
    353a:	b5 01       	movw	r22, r10
    353c:	88 27       	eor	r24, r24
    353e:	77 fd       	sbrc	r23, 7
    3540:	80 95       	com	r24
    3542:	98 2f       	mov	r25, r24
    3544:	2d 81       	ldd	r18, Y+5	; 0x05
    3546:	20 53       	subi	r18, 0x30	; 48
    3548:	40 e2       	ldi	r20, 0x20	; 32
    354a:	59 dd       	rcall	.-1358   	; 0x2ffe <mulacc>
    354c:	ab 01       	movw	r20, r22
    354e:	bc 01       	movw	r22, r24
    3550:	5a 01       	movw	r10, r20
    3552:	01 50       	subi	r16, 0x01	; 1
    3554:	11 09       	sbc	r17, r1
    3556:	01 15       	cp	r16, r1
    3558:	11 05       	cpc	r17, r1
    355a:	69 f0       	breq	.+26     	; 0x3576 <conv_flt+0x212>
    355c:	c6 01       	movw	r24, r12
    355e:	49 83       	std	Y+1, r20	; 0x01
    3560:	5a 83       	std	Y+2, r21	; 0x02
    3562:	6b 83       	std	Y+3, r22	; 0x03
    3564:	7c 83       	std	Y+4, r23	; 0x04
    3566:	d3 d4       	rcall	.+2470   	; 0x3f0e <fgetc>
    3568:	9e 83       	std	Y+6, r25	; 0x06
    356a:	8d 83       	std	Y+5, r24	; 0x05
    356c:	c0 97       	sbiw	r24, 0x30	; 48
    356e:	49 81       	ldd	r20, Y+1	; 0x01
    3570:	5a 81       	ldd	r21, Y+2	; 0x02
    3572:	0a 97       	sbiw	r24, 0x0a	; 10
    3574:	10 f3       	brcs	.-60     	; 0x353a <conv_flt+0x1d6>
    3576:	94 fe       	sbrs	r9, 4
    3578:	04 c0       	rjmp	.+8      	; 0x3582 <conv_flt+0x21e>
    357a:	aa 24       	eor	r10, r10
    357c:	bb 24       	eor	r11, r11
    357e:	a4 1a       	sub	r10, r20
    3580:	b5 0a       	sbc	r11, r21
    3582:	ea 0c       	add	r14, r10
    3584:	fb 1c       	adc	r15, r11
    3586:	01 2b       	or	r16, r17
    3588:	39 f0       	breq	.+14     	; 0x3598 <conv_flt+0x234>
    358a:	ed 81       	ldd	r30, Y+5	; 0x05
    358c:	fe 81       	ldd	r31, Y+6	; 0x06
    358e:	f7 fd       	sbrc	r31, 7
    3590:	03 c0       	rjmp	.+6      	; 0x3598 <conv_flt+0x234>
    3592:	b6 01       	movw	r22, r12
    3594:	cf 01       	movw	r24, r30
    3596:	8d d5       	rcall	.+2842   	; 0x40b2 <ungetc>
    3598:	c3 01       	movw	r24, r6
    359a:	b2 01       	movw	r22, r4
    359c:	69 d8       	rcall	.-3886   	; 0x2670 <__floatunsisf>
    359e:	f7 fe       	sbrs	r15, 7
    35a0:	08 c0       	rjmp	.+16     	; 0x35b2 <conv_flt+0x24e>
    35a2:	f1 94       	neg	r15
    35a4:	e1 94       	neg	r14
    35a6:	f1 08       	sbc	r15, r1
    35a8:	f5 e3       	ldi	r31, 0x35	; 53
    35aa:	af 2e       	mov	r10, r31
    35ac:	f1 e0       	ldi	r31, 0x01	; 1
    35ae:	bf 2e       	mov	r11, r31
    35b0:	04 c0       	rjmp	.+8      	; 0x35ba <conv_flt+0x256>
    35b2:	ed e4       	ldi	r30, 0x4D	; 77
    35b4:	ae 2e       	mov	r10, r30
    35b6:	e1 e0       	ldi	r30, 0x01	; 1
    35b8:	be 2e       	mov	r11, r30
    35ba:	65 01       	movw	r12, r10
    35bc:	f8 e1       	ldi	r31, 0x18	; 24
    35be:	cf 1a       	sub	r12, r31
    35c0:	d1 08       	sbc	r13, r1
    35c2:	00 e2       	ldi	r16, 0x20	; 32
    35c4:	10 e0       	ldi	r17, 0x00	; 0
    35c6:	e0 16       	cp	r14, r16
    35c8:	f1 06       	cpc	r15, r17
    35ca:	48 f0       	brcs	.+18     	; 0x35de <conv_flt+0x27a>
    35cc:	f5 01       	movw	r30, r10
    35ce:	25 91       	lpm	r18, Z+
    35d0:	35 91       	lpm	r19, Z+
    35d2:	45 91       	lpm	r20, Z+
    35d4:	54 91       	lpm	r21, Z
    35d6:	02 d9       	rcall	.-3580   	; 0x27dc <__mulsf3>
    35d8:	e0 1a       	sub	r14, r16
    35da:	f1 0a       	sbc	r15, r17
    35dc:	f4 cf       	rjmp	.-24     	; 0x35c6 <conv_flt+0x262>
    35de:	24 e0       	ldi	r18, 0x04	; 4
    35e0:	a2 1a       	sub	r10, r18
    35e2:	b1 08       	sbc	r11, r1
    35e4:	16 95       	lsr	r17
    35e6:	07 95       	ror	r16
    35e8:	ac 14       	cp	r10, r12
    35ea:	bd 04       	cpc	r11, r13
    35ec:	61 f7       	brne	.-40     	; 0x35c6 <conv_flt+0x262>
    35ee:	97 fe       	sbrs	r9, 7
    35f0:	05 c0       	rjmp	.+10     	; 0x35fc <conv_flt+0x298>
    35f2:	dc 01       	movw	r26, r24
    35f4:	cb 01       	movw	r24, r22
    35f6:	b0 58       	subi	r27, 0x80	; 128
    35f8:	bc 01       	movw	r22, r24
    35fa:	cd 01       	movw	r24, r26
    35fc:	21 14       	cp	r2, r1
    35fe:	31 04       	cpc	r3, r1
    3600:	29 f0       	breq	.+10     	; 0x360c <conv_flt+0x2a8>
    3602:	f1 01       	movw	r30, r2
    3604:	60 83       	st	Z, r22
    3606:	71 83       	std	Z+1, r23	; 0x01
    3608:	82 83       	std	Z+2, r24	; 0x02
    360a:	93 83       	std	Z+3, r25	; 0x03
    360c:	81 e0       	ldi	r24, 0x01	; 1
    360e:	26 96       	adiw	r28, 0x06	; 6
    3610:	0f b6       	in	r0, 0x3f	; 63
    3612:	f8 94       	cli
    3614:	de bf       	out	0x3e, r29	; 62
    3616:	0f be       	out	0x3f, r0	; 63
    3618:	cd bf       	out	0x3d, r28	; 61
    361a:	df 91       	pop	r29
    361c:	cf 91       	pop	r28
    361e:	1f 91       	pop	r17
    3620:	0f 91       	pop	r16
    3622:	ff 90       	pop	r15
    3624:	ef 90       	pop	r14
    3626:	df 90       	pop	r13
    3628:	cf 90       	pop	r12
    362a:	bf 90       	pop	r11
    362c:	af 90       	pop	r10
    362e:	9f 90       	pop	r9
    3630:	7f 90       	pop	r7
    3632:	6f 90       	pop	r6
    3634:	5f 90       	pop	r5
    3636:	4f 90       	pop	r4
    3638:	3f 90       	pop	r3
    363a:	2f 90       	pop	r2
    363c:	08 95       	ret

0000363e <vfscanf>:
    363e:	4f 92       	push	r4
    3640:	5f 92       	push	r5
    3642:	6f 92       	push	r6
    3644:	7f 92       	push	r7
    3646:	8f 92       	push	r8
    3648:	9f 92       	push	r9
    364a:	af 92       	push	r10
    364c:	bf 92       	push	r11
    364e:	cf 92       	push	r12
    3650:	df 92       	push	r13
    3652:	ef 92       	push	r14
    3654:	ff 92       	push	r15
    3656:	0f 93       	push	r16
    3658:	1f 93       	push	r17
    365a:	cf 93       	push	r28
    365c:	df 93       	push	r29
    365e:	1f 92       	push	r1
    3660:	cd b7       	in	r28, 0x3d	; 61
    3662:	de b7       	in	r29, 0x3e	; 62
    3664:	8c 01       	movw	r16, r24
    3666:	2b 01       	movw	r4, r22
    3668:	7a 01       	movw	r14, r20
    366a:	fc 01       	movw	r30, r24
    366c:	17 82       	std	Z+7, r1	; 0x07
    366e:	16 82       	std	Z+6, r1	; 0x06
    3670:	a1 2c       	mov	r10, r1
    3672:	f8 01       	movw	r30, r16
    3674:	d3 80       	ldd	r13, Z+3	; 0x03
    3676:	f2 01       	movw	r30, r4
    3678:	d3 fc       	sbrc	r13, 3
    367a:	85 91       	lpm	r24, Z+
    367c:	d3 fe       	sbrs	r13, 3
    367e:	81 91       	ld	r24, Z+
    3680:	38 2f       	mov	r19, r24
    3682:	2f 01       	movw	r4, r30
    3684:	88 23       	and	r24, r24
    3686:	09 f4       	brne	.+2      	; 0x368a <vfscanf+0x4c>
    3688:	07 c1       	rjmp	.+526    	; 0x3898 <vfscanf+0x25a>
    368a:	90 e0       	ldi	r25, 0x00	; 0
    368c:	39 83       	std	Y+1, r19	; 0x01
    368e:	bd d3       	rcall	.+1914   	; 0x3e0a <isspace>
    3690:	39 81       	ldd	r19, Y+1	; 0x01
    3692:	89 2b       	or	r24, r25
    3694:	19 f0       	breq	.+6      	; 0x369c <vfscanf+0x5e>
    3696:	c8 01       	movw	r24, r16
    3698:	d2 dc       	rcall	.-1628   	; 0x303e <skip_spaces>
    369a:	eb cf       	rjmp	.-42     	; 0x3672 <vfscanf+0x34>
    369c:	35 32       	cpi	r19, 0x25	; 37
    369e:	41 f4       	brne	.+16     	; 0x36b0 <vfscanf+0x72>
    36a0:	f2 01       	movw	r30, r4
    36a2:	d3 fc       	sbrc	r13, 3
    36a4:	35 91       	lpm	r19, Z+
    36a6:	d3 fe       	sbrs	r13, 3
    36a8:	31 91       	ld	r19, Z+
    36aa:	2f 01       	movw	r4, r30
    36ac:	35 32       	cpi	r19, 0x25	; 37
    36ae:	59 f4       	brne	.+22     	; 0x36c6 <vfscanf+0x88>
    36b0:	c8 01       	movw	r24, r16
    36b2:	39 83       	std	Y+1, r19	; 0x01
    36b4:	2c d4       	rcall	.+2136   	; 0x3f0e <fgetc>
    36b6:	39 81       	ldd	r19, Y+1	; 0x01
    36b8:	97 fd       	sbrc	r25, 7
    36ba:	ec c0       	rjmp	.+472    	; 0x3894 <vfscanf+0x256>
    36bc:	38 17       	cp	r19, r24
    36be:	c9 f2       	breq	.-78     	; 0x3672 <vfscanf+0x34>
    36c0:	b8 01       	movw	r22, r16
    36c2:	f7 d4       	rcall	.+2542   	; 0x40b2 <ungetc>
    36c4:	e9 c0       	rjmp	.+466    	; 0x3898 <vfscanf+0x25a>
    36c6:	3a 32       	cpi	r19, 0x2A	; 42
    36c8:	41 f4       	brne	.+16     	; 0x36da <vfscanf+0x9c>
    36ca:	d3 fc       	sbrc	r13, 3
    36cc:	35 91       	lpm	r19, Z+
    36ce:	d3 fe       	sbrs	r13, 3
    36d0:	31 91       	ld	r19, Z+
    36d2:	2f 01       	movw	r4, r30
    36d4:	bb 24       	eor	r11, r11
    36d6:	b3 94       	inc	r11
    36d8:	01 c0       	rjmp	.+2      	; 0x36dc <vfscanf+0x9e>
    36da:	b1 2c       	mov	r11, r1
    36dc:	81 2c       	mov	r8, r1
    36de:	91 2c       	mov	r9, r1
    36e0:	20 ed       	ldi	r18, 0xD0	; 208
    36e2:	23 0f       	add	r18, r19
    36e4:	2a 30       	cpi	r18, 0x0A	; 10
    36e6:	80 f4       	brcc	.+32     	; 0x3708 <vfscanf+0xca>
    36e8:	fb 2d       	mov	r31, r11
    36ea:	f2 60       	ori	r31, 0x02	; 2
    36ec:	bf 2e       	mov	r11, r31
    36ee:	b4 01       	movw	r22, r8
    36f0:	80 e0       	ldi	r24, 0x00	; 0
    36f2:	90 e0       	ldi	r25, 0x00	; 0
    36f4:	40 e2       	ldi	r20, 0x20	; 32
    36f6:	83 dc       	rcall	.-1786   	; 0x2ffe <mulacc>
    36f8:	4b 01       	movw	r8, r22
    36fa:	f2 01       	movw	r30, r4
    36fc:	d3 fc       	sbrc	r13, 3
    36fe:	35 91       	lpm	r19, Z+
    3700:	d3 fe       	sbrs	r13, 3
    3702:	31 91       	ld	r19, Z+
    3704:	2f 01       	movw	r4, r30
    3706:	ec cf       	rjmp	.-40     	; 0x36e0 <vfscanf+0xa2>
    3708:	b1 fe       	sbrs	r11, 1
    370a:	04 c0       	rjmp	.+8      	; 0x3714 <vfscanf+0xd6>
    370c:	81 14       	cp	r8, r1
    370e:	91 04       	cpc	r9, r1
    3710:	21 f4       	brne	.+8      	; 0x371a <vfscanf+0xdc>
    3712:	c2 c0       	rjmp	.+388    	; 0x3898 <vfscanf+0x25a>
    3714:	88 24       	eor	r8, r8
    3716:	8a 94       	dec	r8
    3718:	98 2c       	mov	r9, r8
    371a:	38 36       	cpi	r19, 0x68	; 104
    371c:	19 f0       	breq	.+6      	; 0x3724 <vfscanf+0xe6>
    371e:	3c 36       	cpi	r19, 0x6C	; 108
    3720:	61 f0       	breq	.+24     	; 0x373a <vfscanf+0xfc>
    3722:	14 c0       	rjmp	.+40     	; 0x374c <vfscanf+0x10e>
    3724:	f2 01       	movw	r30, r4
    3726:	d3 fc       	sbrc	r13, 3
    3728:	35 91       	lpm	r19, Z+
    372a:	d3 fe       	sbrs	r13, 3
    372c:	31 91       	ld	r19, Z+
    372e:	2f 01       	movw	r4, r30
    3730:	38 36       	cpi	r19, 0x68	; 104
    3732:	61 f4       	brne	.+24     	; 0x374c <vfscanf+0x10e>
    3734:	fb 2d       	mov	r31, r11
    3736:	f8 60       	ori	r31, 0x08	; 8
    3738:	bf 2e       	mov	r11, r31
    373a:	8b 2d       	mov	r24, r11
    373c:	84 60       	ori	r24, 0x04	; 4
    373e:	b8 2e       	mov	r11, r24
    3740:	f2 01       	movw	r30, r4
    3742:	d3 fc       	sbrc	r13, 3
    3744:	35 91       	lpm	r19, Z+
    3746:	d3 fe       	sbrs	r13, 3
    3748:	31 91       	ld	r19, Z+
    374a:	2f 01       	movw	r4, r30
    374c:	33 23       	and	r19, r19
    374e:	09 f4       	brne	.+2      	; 0x3752 <vfscanf+0x114>
    3750:	a3 c0       	rjmp	.+326    	; 0x3898 <vfscanf+0x25a>
    3752:	63 2f       	mov	r22, r19
    3754:	70 e0       	ldi	r23, 0x00	; 0
    3756:	84 e0       	ldi	r24, 0x04	; 4
    3758:	91 e0       	ldi	r25, 0x01	; 1
    375a:	39 83       	std	Y+1, r19	; 0x01
    375c:	66 d3       	rcall	.+1740   	; 0x3e2a <strchr_P>
    375e:	39 81       	ldd	r19, Y+1	; 0x01
    3760:	89 2b       	or	r24, r25
    3762:	09 f4       	brne	.+2      	; 0x3766 <vfscanf+0x128>
    3764:	99 c0       	rjmp	.+306    	; 0x3898 <vfscanf+0x25a>
    3766:	b0 fc       	sbrc	r11, 0
    3768:	07 c0       	rjmp	.+14     	; 0x3778 <vfscanf+0x13a>
    376a:	f7 01       	movw	r30, r14
    376c:	c0 80       	ld	r12, Z
    376e:	d1 80       	ldd	r13, Z+1	; 0x01
    3770:	c7 01       	movw	r24, r14
    3772:	02 96       	adiw	r24, 0x02	; 2
    3774:	7c 01       	movw	r14, r24
    3776:	02 c0       	rjmp	.+4      	; 0x377c <vfscanf+0x13e>
    3778:	c1 2c       	mov	r12, r1
    377a:	d1 2c       	mov	r13, r1
    377c:	3e 36       	cpi	r19, 0x6E	; 110
    377e:	49 f4       	brne	.+18     	; 0x3792 <vfscanf+0x154>
    3780:	f8 01       	movw	r30, r16
    3782:	46 81       	ldd	r20, Z+6	; 0x06
    3784:	57 81       	ldd	r21, Z+7	; 0x07
    3786:	60 e0       	ldi	r22, 0x00	; 0
    3788:	70 e0       	ldi	r23, 0x00	; 0
    378a:	2b 2d       	mov	r18, r11
    378c:	c6 01       	movw	r24, r12
    378e:	2b dc       	rcall	.-1962   	; 0x2fe6 <putval>
    3790:	70 cf       	rjmp	.-288    	; 0x3672 <vfscanf+0x34>
    3792:	33 36       	cpi	r19, 0x63	; 99
    3794:	c1 f4       	brne	.+48     	; 0x37c6 <vfscanf+0x188>
    3796:	b1 fc       	sbrc	r11, 1
    3798:	03 c0       	rjmp	.+6      	; 0x37a0 <vfscanf+0x162>
    379a:	88 24       	eor	r8, r8
    379c:	83 94       	inc	r8
    379e:	91 2c       	mov	r9, r1
    37a0:	c8 01       	movw	r24, r16
    37a2:	b5 d3       	rcall	.+1898   	; 0x3f0e <fgetc>
    37a4:	97 fd       	sbrc	r25, 7
    37a6:	76 c0       	rjmp	.+236    	; 0x3894 <vfscanf+0x256>
    37a8:	c1 14       	cp	r12, r1
    37aa:	d1 04       	cpc	r13, r1
    37ac:	29 f0       	breq	.+10     	; 0x37b8 <vfscanf+0x17a>
    37ae:	f6 01       	movw	r30, r12
    37b0:	80 83       	st	Z, r24
    37b2:	c6 01       	movw	r24, r12
    37b4:	01 96       	adiw	r24, 0x01	; 1
    37b6:	6c 01       	movw	r12, r24
    37b8:	91 e0       	ldi	r25, 0x01	; 1
    37ba:	89 1a       	sub	r8, r25
    37bc:	91 08       	sbc	r9, r1
    37be:	81 14       	cp	r8, r1
    37c0:	91 04       	cpc	r9, r1
    37c2:	71 f7       	brne	.-36     	; 0x37a0 <vfscanf+0x162>
    37c4:	63 c0       	rjmp	.+198    	; 0x388c <vfscanf+0x24e>
    37c6:	3b 35       	cpi	r19, 0x5B	; 91
    37c8:	51 f4       	brne	.+20     	; 0x37de <vfscanf+0x1a0>
    37ca:	92 01       	movw	r18, r4
    37cc:	a6 01       	movw	r20, r12
    37ce:	b4 01       	movw	r22, r8
    37d0:	c8 01       	movw	r24, r16
    37d2:	fa dc       	rcall	.-1548   	; 0x31c8 <conv_brk>
    37d4:	2c 01       	movw	r4, r24
    37d6:	00 97       	sbiw	r24, 0x00	; 0
    37d8:	09 f0       	breq	.+2      	; 0x37dc <vfscanf+0x19e>
    37da:	58 c0       	rjmp	.+176    	; 0x388c <vfscanf+0x24e>
    37dc:	52 c0       	rjmp	.+164    	; 0x3882 <vfscanf+0x244>
    37de:	c8 01       	movw	r24, r16
    37e0:	39 83       	std	Y+1, r19	; 0x01
    37e2:	2d dc       	rcall	.-1958   	; 0x303e <skip_spaces>
    37e4:	39 81       	ldd	r19, Y+1	; 0x01
    37e6:	97 fd       	sbrc	r25, 7
    37e8:	55 c0       	rjmp	.+170    	; 0x3894 <vfscanf+0x256>
    37ea:	3f 36       	cpi	r19, 0x6F	; 111
    37ec:	d9 f1       	breq	.+118    	; 0x3864 <vfscanf+0x226>
    37ee:	40 f4       	brcc	.+16     	; 0x3800 <vfscanf+0x1c2>
    37f0:	34 36       	cpi	r19, 0x64	; 100
    37f2:	a1 f1       	breq	.+104    	; 0x385c <vfscanf+0x21e>
    37f4:	39 36       	cpi	r19, 0x69	; 105
    37f6:	c9 f1       	breq	.+114    	; 0x386a <vfscanf+0x22c>
    37f8:	38 35       	cpi	r19, 0x58	; 88
    37fa:	09 f0       	breq	.+2      	; 0x37fe <vfscanf+0x1c0>
    37fc:	3c c0       	rjmp	.+120    	; 0x3876 <vfscanf+0x238>
    37fe:	2a c0       	rjmp	.+84     	; 0x3854 <vfscanf+0x216>
    3800:	33 37       	cpi	r19, 0x73	; 115
    3802:	b9 f0       	breq	.+46     	; 0x3832 <vfscanf+0x1f4>
    3804:	18 f4       	brcc	.+6      	; 0x380c <vfscanf+0x1ce>
    3806:	30 37       	cpi	r19, 0x70	; 112
    3808:	29 f1       	breq	.+74     	; 0x3854 <vfscanf+0x216>
    380a:	35 c0       	rjmp	.+106    	; 0x3876 <vfscanf+0x238>
    380c:	35 37       	cpi	r19, 0x75	; 117
    380e:	31 f1       	breq	.+76     	; 0x385c <vfscanf+0x21e>
    3810:	38 37       	cpi	r19, 0x78	; 120
    3812:	01 f1       	breq	.+64     	; 0x3854 <vfscanf+0x216>
    3814:	30 c0       	rjmp	.+96     	; 0x3876 <vfscanf+0x238>
    3816:	c1 14       	cp	r12, r1
    3818:	d1 04       	cpc	r13, r1
    381a:	29 f0       	breq	.+10     	; 0x3826 <vfscanf+0x1e8>
    381c:	f6 01       	movw	r30, r12
    381e:	60 82       	st	Z, r6
    3820:	c6 01       	movw	r24, r12
    3822:	01 96       	adiw	r24, 0x01	; 1
    3824:	6c 01       	movw	r12, r24
    3826:	91 e0       	ldi	r25, 0x01	; 1
    3828:	89 1a       	sub	r8, r25
    382a:	91 08       	sbc	r9, r1
    382c:	81 14       	cp	r8, r1
    382e:	91 04       	cpc	r9, r1
    3830:	59 f0       	breq	.+22     	; 0x3848 <vfscanf+0x20a>
    3832:	c8 01       	movw	r24, r16
    3834:	6c d3       	rcall	.+1752   	; 0x3f0e <fgetc>
    3836:	3c 01       	movw	r6, r24
    3838:	97 fd       	sbrc	r25, 7
    383a:	06 c0       	rjmp	.+12     	; 0x3848 <vfscanf+0x20a>
    383c:	e6 d2       	rcall	.+1484   	; 0x3e0a <isspace>
    383e:	89 2b       	or	r24, r25
    3840:	51 f3       	breq	.-44     	; 0x3816 <vfscanf+0x1d8>
    3842:	b8 01       	movw	r22, r16
    3844:	c3 01       	movw	r24, r6
    3846:	35 d4       	rcall	.+2154   	; 0x40b2 <ungetc>
    3848:	c1 14       	cp	r12, r1
    384a:	d1 04       	cpc	r13, r1
    384c:	f9 f0       	breq	.+62     	; 0x388c <vfscanf+0x24e>
    384e:	f6 01       	movw	r30, r12
    3850:	10 82       	st	Z, r1
    3852:	1c c0       	rjmp	.+56     	; 0x388c <vfscanf+0x24e>
    3854:	fb 2d       	mov	r31, r11
    3856:	f0 64       	ori	r31, 0x40	; 64
    3858:	bf 2e       	mov	r11, r31
    385a:	07 c0       	rjmp	.+14     	; 0x386a <vfscanf+0x22c>
    385c:	8b 2d       	mov	r24, r11
    385e:	80 62       	ori	r24, 0x20	; 32
    3860:	b8 2e       	mov	r11, r24
    3862:	03 c0       	rjmp	.+6      	; 0x386a <vfscanf+0x22c>
    3864:	9b 2d       	mov	r25, r11
    3866:	90 61       	ori	r25, 0x10	; 16
    3868:	b9 2e       	mov	r11, r25
    386a:	2b 2d       	mov	r18, r11
    386c:	a6 01       	movw	r20, r12
    386e:	b4 01       	movw	r22, r8
    3870:	c8 01       	movw	r24, r16
    3872:	fc db       	rcall	.-2056   	; 0x306c <conv_int>
    3874:	04 c0       	rjmp	.+8      	; 0x387e <vfscanf+0x240>
    3876:	a6 01       	movw	r20, r12
    3878:	b4 01       	movw	r22, r8
    387a:	c8 01       	movw	r24, r16
    387c:	73 dd       	rcall	.-1306   	; 0x3364 <conv_flt>
    387e:	81 11       	cpse	r24, r1
    3880:	05 c0       	rjmp	.+10     	; 0x388c <vfscanf+0x24e>
    3882:	f8 01       	movw	r30, r16
    3884:	83 81       	ldd	r24, Z+3	; 0x03
    3886:	80 73       	andi	r24, 0x30	; 48
    3888:	29 f4       	brne	.+10     	; 0x3894 <vfscanf+0x256>
    388a:	06 c0       	rjmp	.+12     	; 0x3898 <vfscanf+0x25a>
    388c:	b0 fc       	sbrc	r11, 0
    388e:	f1 ce       	rjmp	.-542    	; 0x3672 <vfscanf+0x34>
    3890:	a3 94       	inc	r10
    3892:	ef ce       	rjmp	.-546    	; 0x3672 <vfscanf+0x34>
    3894:	aa 20       	and	r10, r10
    3896:	19 f0       	breq	.+6      	; 0x389e <vfscanf+0x260>
    3898:	8a 2d       	mov	r24, r10
    389a:	90 e0       	ldi	r25, 0x00	; 0
    389c:	02 c0       	rjmp	.+4      	; 0x38a2 <vfscanf+0x264>
    389e:	8f ef       	ldi	r24, 0xFF	; 255
    38a0:	9f ef       	ldi	r25, 0xFF	; 255
    38a2:	0f 90       	pop	r0
    38a4:	df 91       	pop	r29
    38a6:	cf 91       	pop	r28
    38a8:	1f 91       	pop	r17
    38aa:	0f 91       	pop	r16
    38ac:	ff 90       	pop	r15
    38ae:	ef 90       	pop	r14
    38b0:	df 90       	pop	r13
    38b2:	cf 90       	pop	r12
    38b4:	bf 90       	pop	r11
    38b6:	af 90       	pop	r10
    38b8:	9f 90       	pop	r9
    38ba:	8f 90       	pop	r8
    38bc:	7f 90       	pop	r7
    38be:	6f 90       	pop	r6
    38c0:	5f 90       	pop	r5
    38c2:	4f 90       	pop	r4
    38c4:	08 95       	ret

000038c6 <__mulsi3>:
    38c6:	db 01       	movw	r26, r22
    38c8:	8f 93       	push	r24
    38ca:	9f 93       	push	r25
    38cc:	4f d0       	rcall	.+158    	; 0x396c <__muluhisi3>
    38ce:	bf 91       	pop	r27
    38d0:	af 91       	pop	r26
    38d2:	a2 9f       	mul	r26, r18
    38d4:	80 0d       	add	r24, r0
    38d6:	91 1d       	adc	r25, r1
    38d8:	a3 9f       	mul	r26, r19
    38da:	90 0d       	add	r25, r0
    38dc:	b2 9f       	mul	r27, r18
    38de:	90 0d       	add	r25, r0
    38e0:	11 24       	eor	r1, r1
    38e2:	08 95       	ret

000038e4 <__udivmodsi4>:
    38e4:	a1 e2       	ldi	r26, 0x21	; 33
    38e6:	1a 2e       	mov	r1, r26
    38e8:	aa 1b       	sub	r26, r26
    38ea:	bb 1b       	sub	r27, r27
    38ec:	fd 01       	movw	r30, r26
    38ee:	0d c0       	rjmp	.+26     	; 0x390a <__udivmodsi4_ep>

000038f0 <__udivmodsi4_loop>:
    38f0:	aa 1f       	adc	r26, r26
    38f2:	bb 1f       	adc	r27, r27
    38f4:	ee 1f       	adc	r30, r30
    38f6:	ff 1f       	adc	r31, r31
    38f8:	a2 17       	cp	r26, r18
    38fa:	b3 07       	cpc	r27, r19
    38fc:	e4 07       	cpc	r30, r20
    38fe:	f5 07       	cpc	r31, r21
    3900:	20 f0       	brcs	.+8      	; 0x390a <__udivmodsi4_ep>
    3902:	a2 1b       	sub	r26, r18
    3904:	b3 0b       	sbc	r27, r19
    3906:	e4 0b       	sbc	r30, r20
    3908:	f5 0b       	sbc	r31, r21

0000390a <__udivmodsi4_ep>:
    390a:	66 1f       	adc	r22, r22
    390c:	77 1f       	adc	r23, r23
    390e:	88 1f       	adc	r24, r24
    3910:	99 1f       	adc	r25, r25
    3912:	1a 94       	dec	r1
    3914:	69 f7       	brne	.-38     	; 0x38f0 <__udivmodsi4_loop>
    3916:	60 95       	com	r22
    3918:	70 95       	com	r23
    391a:	80 95       	com	r24
    391c:	90 95       	com	r25
    391e:	9b 01       	movw	r18, r22
    3920:	ac 01       	movw	r20, r24
    3922:	bd 01       	movw	r22, r26
    3924:	cf 01       	movw	r24, r30
    3926:	08 95       	ret

00003928 <__divmodsi4>:
    3928:	05 2e       	mov	r0, r21
    392a:	97 fb       	bst	r25, 7
    392c:	16 f4       	brtc	.+4      	; 0x3932 <__divmodsi4+0xa>
    392e:	00 94       	com	r0
    3930:	0f d0       	rcall	.+30     	; 0x3950 <__negsi2>
    3932:	57 fd       	sbrc	r21, 7
    3934:	05 d0       	rcall	.+10     	; 0x3940 <__divmodsi4_neg2>
    3936:	d6 df       	rcall	.-84     	; 0x38e4 <__udivmodsi4>
    3938:	07 fc       	sbrc	r0, 7
    393a:	02 d0       	rcall	.+4      	; 0x3940 <__divmodsi4_neg2>
    393c:	46 f4       	brtc	.+16     	; 0x394e <__divmodsi4_exit>
    393e:	08 c0       	rjmp	.+16     	; 0x3950 <__negsi2>

00003940 <__divmodsi4_neg2>:
    3940:	50 95       	com	r21
    3942:	40 95       	com	r20
    3944:	30 95       	com	r19
    3946:	21 95       	neg	r18
    3948:	3f 4f       	sbci	r19, 0xFF	; 255
    394a:	4f 4f       	sbci	r20, 0xFF	; 255
    394c:	5f 4f       	sbci	r21, 0xFF	; 255

0000394e <__divmodsi4_exit>:
    394e:	08 95       	ret

00003950 <__negsi2>:
    3950:	90 95       	com	r25
    3952:	80 95       	com	r24
    3954:	70 95       	com	r23
    3956:	61 95       	neg	r22
    3958:	7f 4f       	sbci	r23, 0xFF	; 255
    395a:	8f 4f       	sbci	r24, 0xFF	; 255
    395c:	9f 4f       	sbci	r25, 0xFF	; 255
    395e:	08 95       	ret

00003960 <__tablejump2__>:
    3960:	ee 0f       	add	r30, r30
    3962:	ff 1f       	adc	r31, r31

00003964 <__tablejump__>:
    3964:	05 90       	lpm	r0, Z+
    3966:	f4 91       	lpm	r31, Z
    3968:	e0 2d       	mov	r30, r0
    396a:	09 94       	ijmp

0000396c <__muluhisi3>:
    396c:	40 d0       	rcall	.+128    	; 0x39ee <__umulhisi3>
    396e:	a5 9f       	mul	r26, r21
    3970:	90 0d       	add	r25, r0
    3972:	b4 9f       	mul	r27, r20
    3974:	90 0d       	add	r25, r0
    3976:	a4 9f       	mul	r26, r20
    3978:	80 0d       	add	r24, r0
    397a:	91 1d       	adc	r25, r1
    397c:	11 24       	eor	r1, r1
    397e:	08 95       	ret

00003980 <__prologue_saves__>:
    3980:	2f 92       	push	r2
    3982:	3f 92       	push	r3
    3984:	4f 92       	push	r4
    3986:	5f 92       	push	r5
    3988:	6f 92       	push	r6
    398a:	7f 92       	push	r7
    398c:	8f 92       	push	r8
    398e:	9f 92       	push	r9
    3990:	af 92       	push	r10
    3992:	bf 92       	push	r11
    3994:	cf 92       	push	r12
    3996:	df 92       	push	r13
    3998:	ef 92       	push	r14
    399a:	ff 92       	push	r15
    399c:	0f 93       	push	r16
    399e:	1f 93       	push	r17
    39a0:	cf 93       	push	r28
    39a2:	df 93       	push	r29
    39a4:	cd b7       	in	r28, 0x3d	; 61
    39a6:	de b7       	in	r29, 0x3e	; 62
    39a8:	ca 1b       	sub	r28, r26
    39aa:	db 0b       	sbc	r29, r27
    39ac:	0f b6       	in	r0, 0x3f	; 63
    39ae:	f8 94       	cli
    39b0:	de bf       	out	0x3e, r29	; 62
    39b2:	0f be       	out	0x3f, r0	; 63
    39b4:	cd bf       	out	0x3d, r28	; 61
    39b6:	09 94       	ijmp

000039b8 <__epilogue_restores__>:
    39b8:	2a 88       	ldd	r2, Y+18	; 0x12
    39ba:	39 88       	ldd	r3, Y+17	; 0x11
    39bc:	48 88       	ldd	r4, Y+16	; 0x10
    39be:	5f 84       	ldd	r5, Y+15	; 0x0f
    39c0:	6e 84       	ldd	r6, Y+14	; 0x0e
    39c2:	7d 84       	ldd	r7, Y+13	; 0x0d
    39c4:	8c 84       	ldd	r8, Y+12	; 0x0c
    39c6:	9b 84       	ldd	r9, Y+11	; 0x0b
    39c8:	aa 84       	ldd	r10, Y+10	; 0x0a
    39ca:	b9 84       	ldd	r11, Y+9	; 0x09
    39cc:	c8 84       	ldd	r12, Y+8	; 0x08
    39ce:	df 80       	ldd	r13, Y+7	; 0x07
    39d0:	ee 80       	ldd	r14, Y+6	; 0x06
    39d2:	fd 80       	ldd	r15, Y+5	; 0x05
    39d4:	0c 81       	ldd	r16, Y+4	; 0x04
    39d6:	1b 81       	ldd	r17, Y+3	; 0x03
    39d8:	aa 81       	ldd	r26, Y+2	; 0x02
    39da:	b9 81       	ldd	r27, Y+1	; 0x01
    39dc:	ce 0f       	add	r28, r30
    39de:	d1 1d       	adc	r29, r1
    39e0:	0f b6       	in	r0, 0x3f	; 63
    39e2:	f8 94       	cli
    39e4:	de bf       	out	0x3e, r29	; 62
    39e6:	0f be       	out	0x3f, r0	; 63
    39e8:	cd bf       	out	0x3d, r28	; 61
    39ea:	ed 01       	movw	r28, r26
    39ec:	08 95       	ret

000039ee <__umulhisi3>:
    39ee:	a2 9f       	mul	r26, r18
    39f0:	b0 01       	movw	r22, r0
    39f2:	b3 9f       	mul	r27, r19
    39f4:	c0 01       	movw	r24, r0
    39f6:	a3 9f       	mul	r26, r19
    39f8:	70 0d       	add	r23, r0
    39fa:	81 1d       	adc	r24, r1
    39fc:	11 24       	eor	r1, r1
    39fe:	91 1d       	adc	r25, r1
    3a00:	b2 9f       	mul	r27, r18
    3a02:	70 0d       	add	r23, r0
    3a04:	81 1d       	adc	r24, r1
    3a06:	11 24       	eor	r1, r1
    3a08:	91 1d       	adc	r25, r1
    3a0a:	08 95       	ret

00003a0c <malloc>:
    3a0c:	cf 93       	push	r28
    3a0e:	df 93       	push	r29
    3a10:	82 30       	cpi	r24, 0x02	; 2
    3a12:	91 05       	cpc	r25, r1
    3a14:	10 f4       	brcc	.+4      	; 0x3a1a <malloc+0xe>
    3a16:	82 e0       	ldi	r24, 0x02	; 2
    3a18:	90 e0       	ldi	r25, 0x00	; 0
    3a1a:	e0 91 6b 04 	lds	r30, 0x046B
    3a1e:	f0 91 6c 04 	lds	r31, 0x046C
    3a22:	20 e0       	ldi	r18, 0x00	; 0
    3a24:	30 e0       	ldi	r19, 0x00	; 0
    3a26:	a0 e0       	ldi	r26, 0x00	; 0
    3a28:	b0 e0       	ldi	r27, 0x00	; 0
    3a2a:	30 97       	sbiw	r30, 0x00	; 0
    3a2c:	39 f1       	breq	.+78     	; 0x3a7c <malloc+0x70>
    3a2e:	40 81       	ld	r20, Z
    3a30:	51 81       	ldd	r21, Z+1	; 0x01
    3a32:	48 17       	cp	r20, r24
    3a34:	59 07       	cpc	r21, r25
    3a36:	b8 f0       	brcs	.+46     	; 0x3a66 <malloc+0x5a>
    3a38:	48 17       	cp	r20, r24
    3a3a:	59 07       	cpc	r21, r25
    3a3c:	71 f4       	brne	.+28     	; 0x3a5a <malloc+0x4e>
    3a3e:	82 81       	ldd	r24, Z+2	; 0x02
    3a40:	93 81       	ldd	r25, Z+3	; 0x03
    3a42:	10 97       	sbiw	r26, 0x00	; 0
    3a44:	29 f0       	breq	.+10     	; 0x3a50 <malloc+0x44>
    3a46:	13 96       	adiw	r26, 0x03	; 3
    3a48:	9c 93       	st	X, r25
    3a4a:	8e 93       	st	-X, r24
    3a4c:	12 97       	sbiw	r26, 0x02	; 2
    3a4e:	2c c0       	rjmp	.+88     	; 0x3aa8 <malloc+0x9c>
    3a50:	90 93 6c 04 	sts	0x046C, r25
    3a54:	80 93 6b 04 	sts	0x046B, r24
    3a58:	27 c0       	rjmp	.+78     	; 0x3aa8 <malloc+0x9c>
    3a5a:	21 15       	cp	r18, r1
    3a5c:	31 05       	cpc	r19, r1
    3a5e:	31 f0       	breq	.+12     	; 0x3a6c <malloc+0x60>
    3a60:	42 17       	cp	r20, r18
    3a62:	53 07       	cpc	r21, r19
    3a64:	18 f0       	brcs	.+6      	; 0x3a6c <malloc+0x60>
    3a66:	a9 01       	movw	r20, r18
    3a68:	db 01       	movw	r26, r22
    3a6a:	01 c0       	rjmp	.+2      	; 0x3a6e <malloc+0x62>
    3a6c:	ef 01       	movw	r28, r30
    3a6e:	9a 01       	movw	r18, r20
    3a70:	bd 01       	movw	r22, r26
    3a72:	df 01       	movw	r26, r30
    3a74:	02 80       	ldd	r0, Z+2	; 0x02
    3a76:	f3 81       	ldd	r31, Z+3	; 0x03
    3a78:	e0 2d       	mov	r30, r0
    3a7a:	d7 cf       	rjmp	.-82     	; 0x3a2a <malloc+0x1e>
    3a7c:	21 15       	cp	r18, r1
    3a7e:	31 05       	cpc	r19, r1
    3a80:	f9 f0       	breq	.+62     	; 0x3ac0 <malloc+0xb4>
    3a82:	28 1b       	sub	r18, r24
    3a84:	39 0b       	sbc	r19, r25
    3a86:	24 30       	cpi	r18, 0x04	; 4
    3a88:	31 05       	cpc	r19, r1
    3a8a:	80 f4       	brcc	.+32     	; 0x3aac <malloc+0xa0>
    3a8c:	8a 81       	ldd	r24, Y+2	; 0x02
    3a8e:	9b 81       	ldd	r25, Y+3	; 0x03
    3a90:	61 15       	cp	r22, r1
    3a92:	71 05       	cpc	r23, r1
    3a94:	21 f0       	breq	.+8      	; 0x3a9e <malloc+0x92>
    3a96:	fb 01       	movw	r30, r22
    3a98:	93 83       	std	Z+3, r25	; 0x03
    3a9a:	82 83       	std	Z+2, r24	; 0x02
    3a9c:	04 c0       	rjmp	.+8      	; 0x3aa6 <malloc+0x9a>
    3a9e:	90 93 6c 04 	sts	0x046C, r25
    3aa2:	80 93 6b 04 	sts	0x046B, r24
    3aa6:	fe 01       	movw	r30, r28
    3aa8:	32 96       	adiw	r30, 0x02	; 2
    3aaa:	44 c0       	rjmp	.+136    	; 0x3b34 <malloc+0x128>
    3aac:	fe 01       	movw	r30, r28
    3aae:	e2 0f       	add	r30, r18
    3ab0:	f3 1f       	adc	r31, r19
    3ab2:	81 93       	st	Z+, r24
    3ab4:	91 93       	st	Z+, r25
    3ab6:	22 50       	subi	r18, 0x02	; 2
    3ab8:	31 09       	sbc	r19, r1
    3aba:	39 83       	std	Y+1, r19	; 0x01
    3abc:	28 83       	st	Y, r18
    3abe:	3a c0       	rjmp	.+116    	; 0x3b34 <malloc+0x128>
    3ac0:	20 91 69 04 	lds	r18, 0x0469
    3ac4:	30 91 6a 04 	lds	r19, 0x046A
    3ac8:	23 2b       	or	r18, r19
    3aca:	41 f4       	brne	.+16     	; 0x3adc <malloc+0xd0>
    3acc:	20 91 22 01 	lds	r18, 0x0122
    3ad0:	30 91 23 01 	lds	r19, 0x0123
    3ad4:	30 93 6a 04 	sts	0x046A, r19
    3ad8:	20 93 69 04 	sts	0x0469, r18
    3adc:	20 91 20 01 	lds	r18, 0x0120
    3ae0:	30 91 21 01 	lds	r19, 0x0121
    3ae4:	21 15       	cp	r18, r1
    3ae6:	31 05       	cpc	r19, r1
    3ae8:	41 f4       	brne	.+16     	; 0x3afa <malloc+0xee>
    3aea:	2d b7       	in	r18, 0x3d	; 61
    3aec:	3e b7       	in	r19, 0x3e	; 62
    3aee:	40 91 24 01 	lds	r20, 0x0124
    3af2:	50 91 25 01 	lds	r21, 0x0125
    3af6:	24 1b       	sub	r18, r20
    3af8:	35 0b       	sbc	r19, r21
    3afa:	e0 91 69 04 	lds	r30, 0x0469
    3afe:	f0 91 6a 04 	lds	r31, 0x046A
    3b02:	e2 17       	cp	r30, r18
    3b04:	f3 07       	cpc	r31, r19
    3b06:	a0 f4       	brcc	.+40     	; 0x3b30 <malloc+0x124>
    3b08:	2e 1b       	sub	r18, r30
    3b0a:	3f 0b       	sbc	r19, r31
    3b0c:	28 17       	cp	r18, r24
    3b0e:	39 07       	cpc	r19, r25
    3b10:	78 f0       	brcs	.+30     	; 0x3b30 <malloc+0x124>
    3b12:	ac 01       	movw	r20, r24
    3b14:	4e 5f       	subi	r20, 0xFE	; 254
    3b16:	5f 4f       	sbci	r21, 0xFF	; 255
    3b18:	24 17       	cp	r18, r20
    3b1a:	35 07       	cpc	r19, r21
    3b1c:	48 f0       	brcs	.+18     	; 0x3b30 <malloc+0x124>
    3b1e:	4e 0f       	add	r20, r30
    3b20:	5f 1f       	adc	r21, r31
    3b22:	50 93 6a 04 	sts	0x046A, r21
    3b26:	40 93 69 04 	sts	0x0469, r20
    3b2a:	81 93       	st	Z+, r24
    3b2c:	91 93       	st	Z+, r25
    3b2e:	02 c0       	rjmp	.+4      	; 0x3b34 <malloc+0x128>
    3b30:	e0 e0       	ldi	r30, 0x00	; 0
    3b32:	f0 e0       	ldi	r31, 0x00	; 0
    3b34:	cf 01       	movw	r24, r30
    3b36:	df 91       	pop	r29
    3b38:	cf 91       	pop	r28
    3b3a:	08 95       	ret

00003b3c <free>:
    3b3c:	cf 93       	push	r28
    3b3e:	df 93       	push	r29
    3b40:	00 97       	sbiw	r24, 0x00	; 0
    3b42:	09 f4       	brne	.+2      	; 0x3b46 <free+0xa>
    3b44:	87 c0       	rjmp	.+270    	; 0x3c54 <free+0x118>
    3b46:	fc 01       	movw	r30, r24
    3b48:	32 97       	sbiw	r30, 0x02	; 2
    3b4a:	13 82       	std	Z+3, r1	; 0x03
    3b4c:	12 82       	std	Z+2, r1	; 0x02
    3b4e:	c0 91 6b 04 	lds	r28, 0x046B
    3b52:	d0 91 6c 04 	lds	r29, 0x046C
    3b56:	20 97       	sbiw	r28, 0x00	; 0
    3b58:	81 f4       	brne	.+32     	; 0x3b7a <free+0x3e>
    3b5a:	20 81       	ld	r18, Z
    3b5c:	31 81       	ldd	r19, Z+1	; 0x01
    3b5e:	28 0f       	add	r18, r24
    3b60:	39 1f       	adc	r19, r25
    3b62:	80 91 69 04 	lds	r24, 0x0469
    3b66:	90 91 6a 04 	lds	r25, 0x046A
    3b6a:	82 17       	cp	r24, r18
    3b6c:	93 07       	cpc	r25, r19
    3b6e:	79 f5       	brne	.+94     	; 0x3bce <free+0x92>
    3b70:	f0 93 6a 04 	sts	0x046A, r31
    3b74:	e0 93 69 04 	sts	0x0469, r30
    3b78:	6d c0       	rjmp	.+218    	; 0x3c54 <free+0x118>
    3b7a:	de 01       	movw	r26, r28
    3b7c:	20 e0       	ldi	r18, 0x00	; 0
    3b7e:	30 e0       	ldi	r19, 0x00	; 0
    3b80:	ae 17       	cp	r26, r30
    3b82:	bf 07       	cpc	r27, r31
    3b84:	50 f4       	brcc	.+20     	; 0x3b9a <free+0x5e>
    3b86:	12 96       	adiw	r26, 0x02	; 2
    3b88:	4d 91       	ld	r20, X+
    3b8a:	5c 91       	ld	r21, X
    3b8c:	13 97       	sbiw	r26, 0x03	; 3
    3b8e:	9d 01       	movw	r18, r26
    3b90:	41 15       	cp	r20, r1
    3b92:	51 05       	cpc	r21, r1
    3b94:	09 f1       	breq	.+66     	; 0x3bd8 <free+0x9c>
    3b96:	da 01       	movw	r26, r20
    3b98:	f3 cf       	rjmp	.-26     	; 0x3b80 <free+0x44>
    3b9a:	b3 83       	std	Z+3, r27	; 0x03
    3b9c:	a2 83       	std	Z+2, r26	; 0x02
    3b9e:	40 81       	ld	r20, Z
    3ba0:	51 81       	ldd	r21, Z+1	; 0x01
    3ba2:	84 0f       	add	r24, r20
    3ba4:	95 1f       	adc	r25, r21
    3ba6:	8a 17       	cp	r24, r26
    3ba8:	9b 07       	cpc	r25, r27
    3baa:	71 f4       	brne	.+28     	; 0x3bc8 <free+0x8c>
    3bac:	8d 91       	ld	r24, X+
    3bae:	9c 91       	ld	r25, X
    3bb0:	11 97       	sbiw	r26, 0x01	; 1
    3bb2:	84 0f       	add	r24, r20
    3bb4:	95 1f       	adc	r25, r21
    3bb6:	02 96       	adiw	r24, 0x02	; 2
    3bb8:	91 83       	std	Z+1, r25	; 0x01
    3bba:	80 83       	st	Z, r24
    3bbc:	12 96       	adiw	r26, 0x02	; 2
    3bbe:	8d 91       	ld	r24, X+
    3bc0:	9c 91       	ld	r25, X
    3bc2:	13 97       	sbiw	r26, 0x03	; 3
    3bc4:	93 83       	std	Z+3, r25	; 0x03
    3bc6:	82 83       	std	Z+2, r24	; 0x02
    3bc8:	21 15       	cp	r18, r1
    3bca:	31 05       	cpc	r19, r1
    3bcc:	29 f4       	brne	.+10     	; 0x3bd8 <free+0x9c>
    3bce:	f0 93 6c 04 	sts	0x046C, r31
    3bd2:	e0 93 6b 04 	sts	0x046B, r30
    3bd6:	3e c0       	rjmp	.+124    	; 0x3c54 <free+0x118>
    3bd8:	d9 01       	movw	r26, r18
    3bda:	13 96       	adiw	r26, 0x03	; 3
    3bdc:	fc 93       	st	X, r31
    3bde:	ee 93       	st	-X, r30
    3be0:	12 97       	sbiw	r26, 0x02	; 2
    3be2:	4d 91       	ld	r20, X+
    3be4:	5d 91       	ld	r21, X+
    3be6:	a4 0f       	add	r26, r20
    3be8:	b5 1f       	adc	r27, r21
    3bea:	ea 17       	cp	r30, r26
    3bec:	fb 07       	cpc	r31, r27
    3bee:	79 f4       	brne	.+30     	; 0x3c0e <free+0xd2>
    3bf0:	80 81       	ld	r24, Z
    3bf2:	91 81       	ldd	r25, Z+1	; 0x01
    3bf4:	84 0f       	add	r24, r20
    3bf6:	95 1f       	adc	r25, r21
    3bf8:	02 96       	adiw	r24, 0x02	; 2
    3bfa:	d9 01       	movw	r26, r18
    3bfc:	11 96       	adiw	r26, 0x01	; 1
    3bfe:	9c 93       	st	X, r25
    3c00:	8e 93       	st	-X, r24
    3c02:	82 81       	ldd	r24, Z+2	; 0x02
    3c04:	93 81       	ldd	r25, Z+3	; 0x03
    3c06:	13 96       	adiw	r26, 0x03	; 3
    3c08:	9c 93       	st	X, r25
    3c0a:	8e 93       	st	-X, r24
    3c0c:	12 97       	sbiw	r26, 0x02	; 2
    3c0e:	e0 e0       	ldi	r30, 0x00	; 0
    3c10:	f0 e0       	ldi	r31, 0x00	; 0
    3c12:	8a 81       	ldd	r24, Y+2	; 0x02
    3c14:	9b 81       	ldd	r25, Y+3	; 0x03
    3c16:	00 97       	sbiw	r24, 0x00	; 0
    3c18:	19 f0       	breq	.+6      	; 0x3c20 <free+0xe4>
    3c1a:	fe 01       	movw	r30, r28
    3c1c:	ec 01       	movw	r28, r24
    3c1e:	f9 cf       	rjmp	.-14     	; 0x3c12 <free+0xd6>
    3c20:	ce 01       	movw	r24, r28
    3c22:	02 96       	adiw	r24, 0x02	; 2
    3c24:	28 81       	ld	r18, Y
    3c26:	39 81       	ldd	r19, Y+1	; 0x01
    3c28:	82 0f       	add	r24, r18
    3c2a:	93 1f       	adc	r25, r19
    3c2c:	20 91 69 04 	lds	r18, 0x0469
    3c30:	30 91 6a 04 	lds	r19, 0x046A
    3c34:	28 17       	cp	r18, r24
    3c36:	39 07       	cpc	r19, r25
    3c38:	69 f4       	brne	.+26     	; 0x3c54 <free+0x118>
    3c3a:	30 97       	sbiw	r30, 0x00	; 0
    3c3c:	29 f4       	brne	.+10     	; 0x3c48 <free+0x10c>
    3c3e:	10 92 6c 04 	sts	0x046C, r1
    3c42:	10 92 6b 04 	sts	0x046B, r1
    3c46:	02 c0       	rjmp	.+4      	; 0x3c4c <free+0x110>
    3c48:	13 82       	std	Z+3, r1	; 0x03
    3c4a:	12 82       	std	Z+2, r1	; 0x02
    3c4c:	d0 93 6a 04 	sts	0x046A, r29
    3c50:	c0 93 69 04 	sts	0x0469, r28
    3c54:	df 91       	pop	r29
    3c56:	cf 91       	pop	r28
    3c58:	08 95       	ret

00003c5a <__ftoa_engine>:
    3c5a:	28 30       	cpi	r18, 0x08	; 8
    3c5c:	08 f0       	brcs	.+2      	; 0x3c60 <__ftoa_engine+0x6>
    3c5e:	27 e0       	ldi	r18, 0x07	; 7
    3c60:	33 27       	eor	r19, r19
    3c62:	da 01       	movw	r26, r20
    3c64:	99 0f       	add	r25, r25
    3c66:	31 1d       	adc	r19, r1
    3c68:	87 fd       	sbrc	r24, 7
    3c6a:	91 60       	ori	r25, 0x01	; 1
    3c6c:	00 96       	adiw	r24, 0x00	; 0
    3c6e:	61 05       	cpc	r22, r1
    3c70:	71 05       	cpc	r23, r1
    3c72:	39 f4       	brne	.+14     	; 0x3c82 <__ftoa_engine+0x28>
    3c74:	32 60       	ori	r19, 0x02	; 2
    3c76:	2e 5f       	subi	r18, 0xFE	; 254
    3c78:	3d 93       	st	X+, r19
    3c7a:	30 e3       	ldi	r19, 0x30	; 48
    3c7c:	2a 95       	dec	r18
    3c7e:	e1 f7       	brne	.-8      	; 0x3c78 <__ftoa_engine+0x1e>
    3c80:	08 95       	ret
    3c82:	9f 3f       	cpi	r25, 0xFF	; 255
    3c84:	30 f0       	brcs	.+12     	; 0x3c92 <__ftoa_engine+0x38>
    3c86:	80 38       	cpi	r24, 0x80	; 128
    3c88:	71 05       	cpc	r23, r1
    3c8a:	61 05       	cpc	r22, r1
    3c8c:	09 f0       	breq	.+2      	; 0x3c90 <__ftoa_engine+0x36>
    3c8e:	3c 5f       	subi	r19, 0xFC	; 252
    3c90:	3c 5f       	subi	r19, 0xFC	; 252
    3c92:	3d 93       	st	X+, r19
    3c94:	91 30       	cpi	r25, 0x01	; 1
    3c96:	08 f0       	brcs	.+2      	; 0x3c9a <__ftoa_engine+0x40>
    3c98:	80 68       	ori	r24, 0x80	; 128
    3c9a:	91 1d       	adc	r25, r1
    3c9c:	df 93       	push	r29
    3c9e:	cf 93       	push	r28
    3ca0:	1f 93       	push	r17
    3ca2:	0f 93       	push	r16
    3ca4:	ff 92       	push	r15
    3ca6:	ef 92       	push	r14
    3ca8:	19 2f       	mov	r17, r25
    3caa:	98 7f       	andi	r25, 0xF8	; 248
    3cac:	96 95       	lsr	r25
    3cae:	e9 2f       	mov	r30, r25
    3cb0:	96 95       	lsr	r25
    3cb2:	96 95       	lsr	r25
    3cb4:	e9 0f       	add	r30, r25
    3cb6:	ff 27       	eor	r31, r31
    3cb8:	e5 55       	subi	r30, 0x55	; 85
    3cba:	fe 4f       	sbci	r31, 0xFE	; 254
    3cbc:	99 27       	eor	r25, r25
    3cbe:	33 27       	eor	r19, r19
    3cc0:	ee 24       	eor	r14, r14
    3cc2:	ff 24       	eor	r15, r15
    3cc4:	a7 01       	movw	r20, r14
    3cc6:	e7 01       	movw	r28, r14
    3cc8:	05 90       	lpm	r0, Z+
    3cca:	08 94       	sec
    3ccc:	07 94       	ror	r0
    3cce:	28 f4       	brcc	.+10     	; 0x3cda <__ftoa_engine+0x80>
    3cd0:	36 0f       	add	r19, r22
    3cd2:	e7 1e       	adc	r14, r23
    3cd4:	f8 1e       	adc	r15, r24
    3cd6:	49 1f       	adc	r20, r25
    3cd8:	51 1d       	adc	r21, r1
    3cda:	66 0f       	add	r22, r22
    3cdc:	77 1f       	adc	r23, r23
    3cde:	88 1f       	adc	r24, r24
    3ce0:	99 1f       	adc	r25, r25
    3ce2:	06 94       	lsr	r0
    3ce4:	a1 f7       	brne	.-24     	; 0x3cce <__ftoa_engine+0x74>
    3ce6:	05 90       	lpm	r0, Z+
    3ce8:	07 94       	ror	r0
    3cea:	28 f4       	brcc	.+10     	; 0x3cf6 <__ftoa_engine+0x9c>
    3cec:	e7 0e       	add	r14, r23
    3cee:	f8 1e       	adc	r15, r24
    3cf0:	49 1f       	adc	r20, r25
    3cf2:	56 1f       	adc	r21, r22
    3cf4:	c1 1d       	adc	r28, r1
    3cf6:	77 0f       	add	r23, r23
    3cf8:	88 1f       	adc	r24, r24
    3cfa:	99 1f       	adc	r25, r25
    3cfc:	66 1f       	adc	r22, r22
    3cfe:	06 94       	lsr	r0
    3d00:	a1 f7       	brne	.-24     	; 0x3cea <__ftoa_engine+0x90>
    3d02:	05 90       	lpm	r0, Z+
    3d04:	07 94       	ror	r0
    3d06:	28 f4       	brcc	.+10     	; 0x3d12 <__ftoa_engine+0xb8>
    3d08:	f8 0e       	add	r15, r24
    3d0a:	49 1f       	adc	r20, r25
    3d0c:	56 1f       	adc	r21, r22
    3d0e:	c7 1f       	adc	r28, r23
    3d10:	d1 1d       	adc	r29, r1
    3d12:	88 0f       	add	r24, r24
    3d14:	99 1f       	adc	r25, r25
    3d16:	66 1f       	adc	r22, r22
    3d18:	77 1f       	adc	r23, r23
    3d1a:	06 94       	lsr	r0
    3d1c:	a1 f7       	brne	.-24     	; 0x3d06 <__ftoa_engine+0xac>
    3d1e:	05 90       	lpm	r0, Z+
    3d20:	07 94       	ror	r0
    3d22:	20 f4       	brcc	.+8      	; 0x3d2c <__ftoa_engine+0xd2>
    3d24:	49 0f       	add	r20, r25
    3d26:	56 1f       	adc	r21, r22
    3d28:	c7 1f       	adc	r28, r23
    3d2a:	d8 1f       	adc	r29, r24
    3d2c:	99 0f       	add	r25, r25
    3d2e:	66 1f       	adc	r22, r22
    3d30:	77 1f       	adc	r23, r23
    3d32:	88 1f       	adc	r24, r24
    3d34:	06 94       	lsr	r0
    3d36:	a9 f7       	brne	.-22     	; 0x3d22 <__ftoa_engine+0xc8>
    3d38:	84 91       	lpm	r24, Z
    3d3a:	10 95       	com	r17
    3d3c:	17 70       	andi	r17, 0x07	; 7
    3d3e:	41 f0       	breq	.+16     	; 0x3d50 <__ftoa_engine+0xf6>
    3d40:	d6 95       	lsr	r29
    3d42:	c7 95       	ror	r28
    3d44:	57 95       	ror	r21
    3d46:	47 95       	ror	r20
    3d48:	f7 94       	ror	r15
    3d4a:	e7 94       	ror	r14
    3d4c:	1a 95       	dec	r17
    3d4e:	c1 f7       	brne	.-16     	; 0x3d40 <__ftoa_engine+0xe6>
    3d50:	e1 e5       	ldi	r30, 0x51	; 81
    3d52:	f1 e0       	ldi	r31, 0x01	; 1
    3d54:	68 94       	set
    3d56:	15 90       	lpm	r1, Z+
    3d58:	15 91       	lpm	r17, Z+
    3d5a:	35 91       	lpm	r19, Z+
    3d5c:	65 91       	lpm	r22, Z+
    3d5e:	95 91       	lpm	r25, Z+
    3d60:	05 90       	lpm	r0, Z+
    3d62:	7f e2       	ldi	r23, 0x2F	; 47
    3d64:	73 95       	inc	r23
    3d66:	e1 18       	sub	r14, r1
    3d68:	f1 0a       	sbc	r15, r17
    3d6a:	43 0b       	sbc	r20, r19
    3d6c:	56 0b       	sbc	r21, r22
    3d6e:	c9 0b       	sbc	r28, r25
    3d70:	d0 09       	sbc	r29, r0
    3d72:	c0 f7       	brcc	.-16     	; 0x3d64 <__ftoa_engine+0x10a>
    3d74:	e1 0c       	add	r14, r1
    3d76:	f1 1e       	adc	r15, r17
    3d78:	43 1f       	adc	r20, r19
    3d7a:	56 1f       	adc	r21, r22
    3d7c:	c9 1f       	adc	r28, r25
    3d7e:	d0 1d       	adc	r29, r0
    3d80:	7e f4       	brtc	.+30     	; 0x3da0 <__ftoa_engine+0x146>
    3d82:	70 33       	cpi	r23, 0x30	; 48
    3d84:	11 f4       	brne	.+4      	; 0x3d8a <__ftoa_engine+0x130>
    3d86:	8a 95       	dec	r24
    3d88:	e6 cf       	rjmp	.-52     	; 0x3d56 <__ftoa_engine+0xfc>
    3d8a:	e8 94       	clt
    3d8c:	01 50       	subi	r16, 0x01	; 1
    3d8e:	30 f0       	brcs	.+12     	; 0x3d9c <__ftoa_engine+0x142>
    3d90:	08 0f       	add	r16, r24
    3d92:	0a f4       	brpl	.+2      	; 0x3d96 <__ftoa_engine+0x13c>
    3d94:	00 27       	eor	r16, r16
    3d96:	02 17       	cp	r16, r18
    3d98:	08 f4       	brcc	.+2      	; 0x3d9c <__ftoa_engine+0x142>
    3d9a:	20 2f       	mov	r18, r16
    3d9c:	23 95       	inc	r18
    3d9e:	02 2f       	mov	r16, r18
    3da0:	7a 33       	cpi	r23, 0x3A	; 58
    3da2:	28 f0       	brcs	.+10     	; 0x3dae <__ftoa_engine+0x154>
    3da4:	79 e3       	ldi	r23, 0x39	; 57
    3da6:	7d 93       	st	X+, r23
    3da8:	2a 95       	dec	r18
    3daa:	e9 f7       	brne	.-6      	; 0x3da6 <__ftoa_engine+0x14c>
    3dac:	10 c0       	rjmp	.+32     	; 0x3dce <__ftoa_engine+0x174>
    3dae:	7d 93       	st	X+, r23
    3db0:	2a 95       	dec	r18
    3db2:	89 f6       	brne	.-94     	; 0x3d56 <__ftoa_engine+0xfc>
    3db4:	06 94       	lsr	r0
    3db6:	97 95       	ror	r25
    3db8:	67 95       	ror	r22
    3dba:	37 95       	ror	r19
    3dbc:	17 95       	ror	r17
    3dbe:	17 94       	ror	r1
    3dc0:	e1 18       	sub	r14, r1
    3dc2:	f1 0a       	sbc	r15, r17
    3dc4:	43 0b       	sbc	r20, r19
    3dc6:	56 0b       	sbc	r21, r22
    3dc8:	c9 0b       	sbc	r28, r25
    3dca:	d0 09       	sbc	r29, r0
    3dcc:	98 f0       	brcs	.+38     	; 0x3df4 <__ftoa_engine+0x19a>
    3dce:	23 95       	inc	r18
    3dd0:	7e 91       	ld	r23, -X
    3dd2:	73 95       	inc	r23
    3dd4:	7a 33       	cpi	r23, 0x3A	; 58
    3dd6:	08 f0       	brcs	.+2      	; 0x3dda <__ftoa_engine+0x180>
    3dd8:	70 e3       	ldi	r23, 0x30	; 48
    3dda:	7c 93       	st	X, r23
    3ddc:	20 13       	cpse	r18, r16
    3dde:	b8 f7       	brcc	.-18     	; 0x3dce <__ftoa_engine+0x174>
    3de0:	7e 91       	ld	r23, -X
    3de2:	70 61       	ori	r23, 0x10	; 16
    3de4:	7d 93       	st	X+, r23
    3de6:	30 f0       	brcs	.+12     	; 0x3df4 <__ftoa_engine+0x19a>
    3de8:	83 95       	inc	r24
    3dea:	71 e3       	ldi	r23, 0x31	; 49
    3dec:	7d 93       	st	X+, r23
    3dee:	70 e3       	ldi	r23, 0x30	; 48
    3df0:	2a 95       	dec	r18
    3df2:	e1 f7       	brne	.-8      	; 0x3dec <__ftoa_engine+0x192>
    3df4:	11 24       	eor	r1, r1
    3df6:	ef 90       	pop	r14
    3df8:	ff 90       	pop	r15
    3dfa:	0f 91       	pop	r16
    3dfc:	1f 91       	pop	r17
    3dfe:	cf 91       	pop	r28
    3e00:	df 91       	pop	r29
    3e02:	99 27       	eor	r25, r25
    3e04:	87 fd       	sbrc	r24, 7
    3e06:	90 95       	com	r25
    3e08:	08 95       	ret

00003e0a <isspace>:
    3e0a:	91 11       	cpse	r25, r1
    3e0c:	e3 c1       	rjmp	.+966    	; 0x41d4 <__ctype_isfalse>
    3e0e:	80 32       	cpi	r24, 0x20	; 32
    3e10:	19 f0       	breq	.+6      	; 0x3e18 <isspace+0xe>
    3e12:	89 50       	subi	r24, 0x09	; 9
    3e14:	85 50       	subi	r24, 0x05	; 5
    3e16:	d0 f7       	brcc	.-12     	; 0x3e0c <isspace+0x2>
    3e18:	08 95       	ret

00003e1a <tolower>:
    3e1a:	91 11       	cpse	r25, r1
    3e1c:	08 95       	ret
    3e1e:	81 54       	subi	r24, 0x41	; 65
    3e20:	8a 51       	subi	r24, 0x1A	; 26
    3e22:	08 f4       	brcc	.+2      	; 0x3e26 <tolower+0xc>
    3e24:	80 5e       	subi	r24, 0xE0	; 224
    3e26:	85 5a       	subi	r24, 0xA5	; 165
    3e28:	08 95       	ret

00003e2a <strchr_P>:
    3e2a:	fc 01       	movw	r30, r24
    3e2c:	05 90       	lpm	r0, Z+
    3e2e:	06 16       	cp	r0, r22
    3e30:	21 f0       	breq	.+8      	; 0x3e3a <strchr_P+0x10>
    3e32:	00 20       	and	r0, r0
    3e34:	d9 f7       	brne	.-10     	; 0x3e2c <strchr_P+0x2>
    3e36:	c0 01       	movw	r24, r0
    3e38:	08 95       	ret
    3e3a:	31 97       	sbiw	r30, 0x01	; 1
    3e3c:	cf 01       	movw	r24, r30
    3e3e:	08 95       	ret

00003e40 <strnlen_P>:
    3e40:	fc 01       	movw	r30, r24
    3e42:	05 90       	lpm	r0, Z+
    3e44:	61 50       	subi	r22, 0x01	; 1
    3e46:	70 40       	sbci	r23, 0x00	; 0
    3e48:	01 10       	cpse	r0, r1
    3e4a:	d8 f7       	brcc	.-10     	; 0x3e42 <strnlen_P+0x2>
    3e4c:	80 95       	com	r24
    3e4e:	90 95       	com	r25
    3e50:	8e 0f       	add	r24, r30
    3e52:	9f 1f       	adc	r25, r31
    3e54:	08 95       	ret

00003e56 <strcpy>:
    3e56:	fb 01       	movw	r30, r22
    3e58:	dc 01       	movw	r26, r24
    3e5a:	01 90       	ld	r0, Z+
    3e5c:	0d 92       	st	X+, r0
    3e5e:	00 20       	and	r0, r0
    3e60:	e1 f7       	brne	.-8      	; 0x3e5a <strcpy+0x4>
    3e62:	08 95       	ret

00003e64 <strnlen>:
    3e64:	fc 01       	movw	r30, r24
    3e66:	61 50       	subi	r22, 0x01	; 1
    3e68:	70 40       	sbci	r23, 0x00	; 0
    3e6a:	01 90       	ld	r0, Z+
    3e6c:	01 10       	cpse	r0, r1
    3e6e:	d8 f7       	brcc	.-10     	; 0x3e66 <strnlen+0x2>
    3e70:	80 95       	com	r24
    3e72:	90 95       	com	r25
    3e74:	8e 0f       	add	r24, r30
    3e76:	9f 1f       	adc	r25, r31
    3e78:	08 95       	ret

00003e7a <fdevopen>:
    3e7a:	0f 93       	push	r16
    3e7c:	1f 93       	push	r17
    3e7e:	cf 93       	push	r28
    3e80:	df 93       	push	r29
    3e82:	ec 01       	movw	r28, r24
    3e84:	8b 01       	movw	r16, r22
    3e86:	00 97       	sbiw	r24, 0x00	; 0
    3e88:	31 f4       	brne	.+12     	; 0x3e96 <fdevopen+0x1c>
    3e8a:	61 15       	cp	r22, r1
    3e8c:	71 05       	cpc	r23, r1
    3e8e:	19 f4       	brne	.+6      	; 0x3e96 <fdevopen+0x1c>
    3e90:	80 e0       	ldi	r24, 0x00	; 0
    3e92:	90 e0       	ldi	r25, 0x00	; 0
    3e94:	37 c0       	rjmp	.+110    	; 0x3f04 <fdevopen+0x8a>
    3e96:	6e e0       	ldi	r22, 0x0E	; 14
    3e98:	70 e0       	ldi	r23, 0x00	; 0
    3e9a:	81 e0       	ldi	r24, 0x01	; 1
    3e9c:	90 e0       	ldi	r25, 0x00	; 0
    3e9e:	80 d1       	rcall	.+768    	; 0x41a0 <calloc>
    3ea0:	fc 01       	movw	r30, r24
    3ea2:	00 97       	sbiw	r24, 0x00	; 0
    3ea4:	a9 f3       	breq	.-22     	; 0x3e90 <fdevopen+0x16>
    3ea6:	80 e8       	ldi	r24, 0x80	; 128
    3ea8:	83 83       	std	Z+3, r24	; 0x03
    3eaa:	01 15       	cp	r16, r1
    3eac:	11 05       	cpc	r17, r1
    3eae:	71 f0       	breq	.+28     	; 0x3ecc <fdevopen+0x52>
    3eb0:	13 87       	std	Z+11, r17	; 0x0b
    3eb2:	02 87       	std	Z+10, r16	; 0x0a
    3eb4:	81 e8       	ldi	r24, 0x81	; 129
    3eb6:	83 83       	std	Z+3, r24	; 0x03
    3eb8:	80 91 6d 04 	lds	r24, 0x046D
    3ebc:	90 91 6e 04 	lds	r25, 0x046E
    3ec0:	89 2b       	or	r24, r25
    3ec2:	21 f4       	brne	.+8      	; 0x3ecc <fdevopen+0x52>
    3ec4:	f0 93 6e 04 	sts	0x046E, r31
    3ec8:	e0 93 6d 04 	sts	0x046D, r30
    3ecc:	20 97       	sbiw	r28, 0x00	; 0
    3ece:	c9 f0       	breq	.+50     	; 0x3f02 <fdevopen+0x88>
    3ed0:	d1 87       	std	Z+9, r29	; 0x09
    3ed2:	c0 87       	std	Z+8, r28	; 0x08
    3ed4:	83 81       	ldd	r24, Z+3	; 0x03
    3ed6:	82 60       	ori	r24, 0x02	; 2
    3ed8:	83 83       	std	Z+3, r24	; 0x03
    3eda:	80 91 6f 04 	lds	r24, 0x046F
    3ede:	90 91 70 04 	lds	r25, 0x0470
    3ee2:	89 2b       	or	r24, r25
    3ee4:	71 f4       	brne	.+28     	; 0x3f02 <fdevopen+0x88>
    3ee6:	f0 93 70 04 	sts	0x0470, r31
    3eea:	e0 93 6f 04 	sts	0x046F, r30
    3eee:	80 91 71 04 	lds	r24, 0x0471
    3ef2:	90 91 72 04 	lds	r25, 0x0472
    3ef6:	89 2b       	or	r24, r25
    3ef8:	21 f4       	brne	.+8      	; 0x3f02 <fdevopen+0x88>
    3efa:	f0 93 72 04 	sts	0x0472, r31
    3efe:	e0 93 71 04 	sts	0x0471, r30
    3f02:	cf 01       	movw	r24, r30
    3f04:	df 91       	pop	r29
    3f06:	cf 91       	pop	r28
    3f08:	1f 91       	pop	r17
    3f0a:	0f 91       	pop	r16
    3f0c:	08 95       	ret

00003f0e <fgetc>:
    3f0e:	cf 93       	push	r28
    3f10:	df 93       	push	r29
    3f12:	ec 01       	movw	r28, r24
    3f14:	2b 81       	ldd	r18, Y+3	; 0x03
    3f16:	20 ff       	sbrs	r18, 0
    3f18:	33 c0       	rjmp	.+102    	; 0x3f80 <fgetc+0x72>
    3f1a:	26 ff       	sbrs	r18, 6
    3f1c:	0a c0       	rjmp	.+20     	; 0x3f32 <fgetc+0x24>
    3f1e:	2f 7b       	andi	r18, 0xBF	; 191
    3f20:	2b 83       	std	Y+3, r18	; 0x03
    3f22:	8e 81       	ldd	r24, Y+6	; 0x06
    3f24:	9f 81       	ldd	r25, Y+7	; 0x07
    3f26:	01 96       	adiw	r24, 0x01	; 1
    3f28:	9f 83       	std	Y+7, r25	; 0x07
    3f2a:	8e 83       	std	Y+6, r24	; 0x06
    3f2c:	8a 81       	ldd	r24, Y+2	; 0x02
    3f2e:	90 e0       	ldi	r25, 0x00	; 0
    3f30:	29 c0       	rjmp	.+82     	; 0x3f84 <fgetc+0x76>
    3f32:	22 ff       	sbrs	r18, 2
    3f34:	0f c0       	rjmp	.+30     	; 0x3f54 <fgetc+0x46>
    3f36:	e8 81       	ld	r30, Y
    3f38:	f9 81       	ldd	r31, Y+1	; 0x01
    3f3a:	80 81       	ld	r24, Z
    3f3c:	99 27       	eor	r25, r25
    3f3e:	87 fd       	sbrc	r24, 7
    3f40:	90 95       	com	r25
    3f42:	00 97       	sbiw	r24, 0x00	; 0
    3f44:	19 f4       	brne	.+6      	; 0x3f4c <fgetc+0x3e>
    3f46:	20 62       	ori	r18, 0x20	; 32
    3f48:	2b 83       	std	Y+3, r18	; 0x03
    3f4a:	1a c0       	rjmp	.+52     	; 0x3f80 <fgetc+0x72>
    3f4c:	31 96       	adiw	r30, 0x01	; 1
    3f4e:	f9 83       	std	Y+1, r31	; 0x01
    3f50:	e8 83       	st	Y, r30
    3f52:	0e c0       	rjmp	.+28     	; 0x3f70 <fgetc+0x62>
    3f54:	ea 85       	ldd	r30, Y+10	; 0x0a
    3f56:	fb 85       	ldd	r31, Y+11	; 0x0b
    3f58:	09 95       	icall
    3f5a:	97 ff       	sbrs	r25, 7
    3f5c:	09 c0       	rjmp	.+18     	; 0x3f70 <fgetc+0x62>
    3f5e:	2b 81       	ldd	r18, Y+3	; 0x03
    3f60:	01 96       	adiw	r24, 0x01	; 1
    3f62:	11 f4       	brne	.+4      	; 0x3f68 <fgetc+0x5a>
    3f64:	80 e1       	ldi	r24, 0x10	; 16
    3f66:	01 c0       	rjmp	.+2      	; 0x3f6a <fgetc+0x5c>
    3f68:	80 e2       	ldi	r24, 0x20	; 32
    3f6a:	82 2b       	or	r24, r18
    3f6c:	8b 83       	std	Y+3, r24	; 0x03
    3f6e:	08 c0       	rjmp	.+16     	; 0x3f80 <fgetc+0x72>
    3f70:	2e 81       	ldd	r18, Y+6	; 0x06
    3f72:	3f 81       	ldd	r19, Y+7	; 0x07
    3f74:	2f 5f       	subi	r18, 0xFF	; 255
    3f76:	3f 4f       	sbci	r19, 0xFF	; 255
    3f78:	3f 83       	std	Y+7, r19	; 0x07
    3f7a:	2e 83       	std	Y+6, r18	; 0x06
    3f7c:	99 27       	eor	r25, r25
    3f7e:	02 c0       	rjmp	.+4      	; 0x3f84 <fgetc+0x76>
    3f80:	8f ef       	ldi	r24, 0xFF	; 255
    3f82:	9f ef       	ldi	r25, 0xFF	; 255
    3f84:	df 91       	pop	r29
    3f86:	cf 91       	pop	r28
    3f88:	08 95       	ret

00003f8a <fputc>:
    3f8a:	0f 93       	push	r16
    3f8c:	1f 93       	push	r17
    3f8e:	cf 93       	push	r28
    3f90:	df 93       	push	r29
    3f92:	18 2f       	mov	r17, r24
    3f94:	09 2f       	mov	r16, r25
    3f96:	eb 01       	movw	r28, r22
    3f98:	8b 81       	ldd	r24, Y+3	; 0x03
    3f9a:	81 fd       	sbrc	r24, 1
    3f9c:	03 c0       	rjmp	.+6      	; 0x3fa4 <fputc+0x1a>
    3f9e:	8f ef       	ldi	r24, 0xFF	; 255
    3fa0:	9f ef       	ldi	r25, 0xFF	; 255
    3fa2:	20 c0       	rjmp	.+64     	; 0x3fe4 <fputc+0x5a>
    3fa4:	82 ff       	sbrs	r24, 2
    3fa6:	10 c0       	rjmp	.+32     	; 0x3fc8 <fputc+0x3e>
    3fa8:	4e 81       	ldd	r20, Y+6	; 0x06
    3faa:	5f 81       	ldd	r21, Y+7	; 0x07
    3fac:	2c 81       	ldd	r18, Y+4	; 0x04
    3fae:	3d 81       	ldd	r19, Y+5	; 0x05
    3fb0:	42 17       	cp	r20, r18
    3fb2:	53 07       	cpc	r21, r19
    3fb4:	7c f4       	brge	.+30     	; 0x3fd4 <fputc+0x4a>
    3fb6:	e8 81       	ld	r30, Y
    3fb8:	f9 81       	ldd	r31, Y+1	; 0x01
    3fba:	9f 01       	movw	r18, r30
    3fbc:	2f 5f       	subi	r18, 0xFF	; 255
    3fbe:	3f 4f       	sbci	r19, 0xFF	; 255
    3fc0:	39 83       	std	Y+1, r19	; 0x01
    3fc2:	28 83       	st	Y, r18
    3fc4:	10 83       	st	Z, r17
    3fc6:	06 c0       	rjmp	.+12     	; 0x3fd4 <fputc+0x4a>
    3fc8:	e8 85       	ldd	r30, Y+8	; 0x08
    3fca:	f9 85       	ldd	r31, Y+9	; 0x09
    3fcc:	81 2f       	mov	r24, r17
    3fce:	09 95       	icall
    3fd0:	89 2b       	or	r24, r25
    3fd2:	29 f7       	brne	.-54     	; 0x3f9e <fputc+0x14>
    3fd4:	2e 81       	ldd	r18, Y+6	; 0x06
    3fd6:	3f 81       	ldd	r19, Y+7	; 0x07
    3fd8:	2f 5f       	subi	r18, 0xFF	; 255
    3fda:	3f 4f       	sbci	r19, 0xFF	; 255
    3fdc:	3f 83       	std	Y+7, r19	; 0x07
    3fde:	2e 83       	std	Y+6, r18	; 0x06
    3fe0:	81 2f       	mov	r24, r17
    3fe2:	90 2f       	mov	r25, r16
    3fe4:	df 91       	pop	r29
    3fe6:	cf 91       	pop	r28
    3fe8:	1f 91       	pop	r17
    3fea:	0f 91       	pop	r16
    3fec:	08 95       	ret

00003fee <printf>:
    3fee:	cf 93       	push	r28
    3ff0:	df 93       	push	r29
    3ff2:	cd b7       	in	r28, 0x3d	; 61
    3ff4:	de b7       	in	r29, 0x3e	; 62
    3ff6:	fe 01       	movw	r30, r28
    3ff8:	35 96       	adiw	r30, 0x05	; 5
    3ffa:	61 91       	ld	r22, Z+
    3ffc:	71 91       	ld	r23, Z+
    3ffe:	af 01       	movw	r20, r30
    4000:	80 91 6f 04 	lds	r24, 0x046F
    4004:	90 91 70 04 	lds	r25, 0x0470
    4008:	0e 94 51 14 	call	0x28a2	; 0x28a2 <vfprintf>
    400c:	df 91       	pop	r29
    400e:	cf 91       	pop	r28
    4010:	08 95       	ret

00004012 <sprintf>:
    4012:	0f 93       	push	r16
    4014:	1f 93       	push	r17
    4016:	cf 93       	push	r28
    4018:	df 93       	push	r29
    401a:	cd b7       	in	r28, 0x3d	; 61
    401c:	de b7       	in	r29, 0x3e	; 62
    401e:	2e 97       	sbiw	r28, 0x0e	; 14
    4020:	0f b6       	in	r0, 0x3f	; 63
    4022:	f8 94       	cli
    4024:	de bf       	out	0x3e, r29	; 62
    4026:	0f be       	out	0x3f, r0	; 63
    4028:	cd bf       	out	0x3d, r28	; 61
    402a:	0d 89       	ldd	r16, Y+21	; 0x15
    402c:	1e 89       	ldd	r17, Y+22	; 0x16
    402e:	86 e0       	ldi	r24, 0x06	; 6
    4030:	8c 83       	std	Y+4, r24	; 0x04
    4032:	1a 83       	std	Y+2, r17	; 0x02
    4034:	09 83       	std	Y+1, r16	; 0x01
    4036:	8f ef       	ldi	r24, 0xFF	; 255
    4038:	9f e7       	ldi	r25, 0x7F	; 127
    403a:	9e 83       	std	Y+6, r25	; 0x06
    403c:	8d 83       	std	Y+5, r24	; 0x05
    403e:	ae 01       	movw	r20, r28
    4040:	47 5e       	subi	r20, 0xE7	; 231
    4042:	5f 4f       	sbci	r21, 0xFF	; 255
    4044:	6f 89       	ldd	r22, Y+23	; 0x17
    4046:	78 8d       	ldd	r23, Y+24	; 0x18
    4048:	ce 01       	movw	r24, r28
    404a:	01 96       	adiw	r24, 0x01	; 1
    404c:	0e 94 51 14 	call	0x28a2	; 0x28a2 <vfprintf>
    4050:	ef 81       	ldd	r30, Y+7	; 0x07
    4052:	f8 85       	ldd	r31, Y+8	; 0x08
    4054:	e0 0f       	add	r30, r16
    4056:	f1 1f       	adc	r31, r17
    4058:	10 82       	st	Z, r1
    405a:	2e 96       	adiw	r28, 0x0e	; 14
    405c:	0f b6       	in	r0, 0x3f	; 63
    405e:	f8 94       	cli
    4060:	de bf       	out	0x3e, r29	; 62
    4062:	0f be       	out	0x3f, r0	; 63
    4064:	cd bf       	out	0x3d, r28	; 61
    4066:	df 91       	pop	r29
    4068:	cf 91       	pop	r28
    406a:	1f 91       	pop	r17
    406c:	0f 91       	pop	r16
    406e:	08 95       	ret

00004070 <sscanf>:
    4070:	cf 93       	push	r28
    4072:	df 93       	push	r29
    4074:	cd b7       	in	r28, 0x3d	; 61
    4076:	de b7       	in	r29, 0x3e	; 62
    4078:	2e 97       	sbiw	r28, 0x0e	; 14
    407a:	0f b6       	in	r0, 0x3f	; 63
    407c:	f8 94       	cli
    407e:	de bf       	out	0x3e, r29	; 62
    4080:	0f be       	out	0x3f, r0	; 63
    4082:	cd bf       	out	0x3d, r28	; 61
    4084:	85 e0       	ldi	r24, 0x05	; 5
    4086:	8c 83       	std	Y+4, r24	; 0x04
    4088:	8b 89       	ldd	r24, Y+19	; 0x13
    408a:	9c 89       	ldd	r25, Y+20	; 0x14
    408c:	9a 83       	std	Y+2, r25	; 0x02
    408e:	89 83       	std	Y+1, r24	; 0x01
    4090:	ae 01       	movw	r20, r28
    4092:	49 5e       	subi	r20, 0xE9	; 233
    4094:	5f 4f       	sbci	r21, 0xFF	; 255
    4096:	6d 89       	ldd	r22, Y+21	; 0x15
    4098:	7e 89       	ldd	r23, Y+22	; 0x16
    409a:	ce 01       	movw	r24, r28
    409c:	01 96       	adiw	r24, 0x01	; 1
    409e:	cf da       	rcall	.-2658   	; 0x363e <vfscanf>
    40a0:	2e 96       	adiw	r28, 0x0e	; 14
    40a2:	0f b6       	in	r0, 0x3f	; 63
    40a4:	f8 94       	cli
    40a6:	de bf       	out	0x3e, r29	; 62
    40a8:	0f be       	out	0x3f, r0	; 63
    40aa:	cd bf       	out	0x3d, r28	; 61
    40ac:	df 91       	pop	r29
    40ae:	cf 91       	pop	r28
    40b0:	08 95       	ret

000040b2 <ungetc>:
    40b2:	fb 01       	movw	r30, r22
    40b4:	23 81       	ldd	r18, Z+3	; 0x03
    40b6:	20 ff       	sbrs	r18, 0
    40b8:	12 c0       	rjmp	.+36     	; 0x40de <ungetc+0x2c>
    40ba:	26 fd       	sbrc	r18, 6
    40bc:	10 c0       	rjmp	.+32     	; 0x40de <ungetc+0x2c>
    40be:	8f 3f       	cpi	r24, 0xFF	; 255
    40c0:	3f ef       	ldi	r19, 0xFF	; 255
    40c2:	93 07       	cpc	r25, r19
    40c4:	61 f0       	breq	.+24     	; 0x40de <ungetc+0x2c>
    40c6:	82 83       	std	Z+2, r24	; 0x02
    40c8:	2f 7d       	andi	r18, 0xDF	; 223
    40ca:	20 64       	ori	r18, 0x40	; 64
    40cc:	23 83       	std	Z+3, r18	; 0x03
    40ce:	26 81       	ldd	r18, Z+6	; 0x06
    40d0:	37 81       	ldd	r19, Z+7	; 0x07
    40d2:	21 50       	subi	r18, 0x01	; 1
    40d4:	31 09       	sbc	r19, r1
    40d6:	37 83       	std	Z+7, r19	; 0x07
    40d8:	26 83       	std	Z+6, r18	; 0x06
    40da:	99 27       	eor	r25, r25
    40dc:	08 95       	ret
    40de:	8f ef       	ldi	r24, 0xFF	; 255
    40e0:	9f ef       	ldi	r25, 0xFF	; 255
    40e2:	08 95       	ret

000040e4 <__ultoa_invert>:
    40e4:	fa 01       	movw	r30, r20
    40e6:	aa 27       	eor	r26, r26
    40e8:	28 30       	cpi	r18, 0x08	; 8
    40ea:	51 f1       	breq	.+84     	; 0x4140 <__stack+0x41>
    40ec:	20 31       	cpi	r18, 0x10	; 16
    40ee:	81 f1       	breq	.+96     	; 0x4150 <__stack+0x51>
    40f0:	e8 94       	clt
    40f2:	6f 93       	push	r22
    40f4:	6e 7f       	andi	r22, 0xFE	; 254
    40f6:	6e 5f       	subi	r22, 0xFE	; 254
    40f8:	7f 4f       	sbci	r23, 0xFF	; 255
    40fa:	8f 4f       	sbci	r24, 0xFF	; 255
    40fc:	9f 4f       	sbci	r25, 0xFF	; 255
    40fe:	af 4f       	sbci	r26, 0xFF	; 255
    4100:	b1 e0       	ldi	r27, 0x01	; 1
    4102:	3e d0       	rcall	.+124    	; 0x4180 <__stack+0x81>
    4104:	b4 e0       	ldi	r27, 0x04	; 4
    4106:	3c d0       	rcall	.+120    	; 0x4180 <__stack+0x81>
    4108:	67 0f       	add	r22, r23
    410a:	78 1f       	adc	r23, r24
    410c:	89 1f       	adc	r24, r25
    410e:	9a 1f       	adc	r25, r26
    4110:	a1 1d       	adc	r26, r1
    4112:	68 0f       	add	r22, r24
    4114:	79 1f       	adc	r23, r25
    4116:	8a 1f       	adc	r24, r26
    4118:	91 1d       	adc	r25, r1
    411a:	a1 1d       	adc	r26, r1
    411c:	6a 0f       	add	r22, r26
    411e:	71 1d       	adc	r23, r1
    4120:	81 1d       	adc	r24, r1
    4122:	91 1d       	adc	r25, r1
    4124:	a1 1d       	adc	r26, r1
    4126:	20 d0       	rcall	.+64     	; 0x4168 <__stack+0x69>
    4128:	09 f4       	brne	.+2      	; 0x412c <__stack+0x2d>
    412a:	68 94       	set
    412c:	3f 91       	pop	r19
    412e:	2a e0       	ldi	r18, 0x0A	; 10
    4130:	26 9f       	mul	r18, r22
    4132:	11 24       	eor	r1, r1
    4134:	30 19       	sub	r19, r0
    4136:	30 5d       	subi	r19, 0xD0	; 208
    4138:	31 93       	st	Z+, r19
    413a:	de f6       	brtc	.-74     	; 0x40f2 <__ultoa_invert+0xe>
    413c:	cf 01       	movw	r24, r30
    413e:	08 95       	ret
    4140:	46 2f       	mov	r20, r22
    4142:	47 70       	andi	r20, 0x07	; 7
    4144:	40 5d       	subi	r20, 0xD0	; 208
    4146:	41 93       	st	Z+, r20
    4148:	b3 e0       	ldi	r27, 0x03	; 3
    414a:	0f d0       	rcall	.+30     	; 0x416a <__stack+0x6b>
    414c:	c9 f7       	brne	.-14     	; 0x4140 <__stack+0x41>
    414e:	f6 cf       	rjmp	.-20     	; 0x413c <__stack+0x3d>
    4150:	46 2f       	mov	r20, r22
    4152:	4f 70       	andi	r20, 0x0F	; 15
    4154:	40 5d       	subi	r20, 0xD0	; 208
    4156:	4a 33       	cpi	r20, 0x3A	; 58
    4158:	18 f0       	brcs	.+6      	; 0x4160 <__stack+0x61>
    415a:	49 5d       	subi	r20, 0xD9	; 217
    415c:	31 fd       	sbrc	r19, 1
    415e:	40 52       	subi	r20, 0x20	; 32
    4160:	41 93       	st	Z+, r20
    4162:	02 d0       	rcall	.+4      	; 0x4168 <__stack+0x69>
    4164:	a9 f7       	brne	.-22     	; 0x4150 <__stack+0x51>
    4166:	ea cf       	rjmp	.-44     	; 0x413c <__stack+0x3d>
    4168:	b4 e0       	ldi	r27, 0x04	; 4
    416a:	a6 95       	lsr	r26
    416c:	97 95       	ror	r25
    416e:	87 95       	ror	r24
    4170:	77 95       	ror	r23
    4172:	67 95       	ror	r22
    4174:	ba 95       	dec	r27
    4176:	c9 f7       	brne	.-14     	; 0x416a <__stack+0x6b>
    4178:	00 97       	sbiw	r24, 0x00	; 0
    417a:	61 05       	cpc	r22, r1
    417c:	71 05       	cpc	r23, r1
    417e:	08 95       	ret
    4180:	9b 01       	movw	r18, r22
    4182:	ac 01       	movw	r20, r24
    4184:	0a 2e       	mov	r0, r26
    4186:	06 94       	lsr	r0
    4188:	57 95       	ror	r21
    418a:	47 95       	ror	r20
    418c:	37 95       	ror	r19
    418e:	27 95       	ror	r18
    4190:	ba 95       	dec	r27
    4192:	c9 f7       	brne	.-14     	; 0x4186 <__stack+0x87>
    4194:	62 0f       	add	r22, r18
    4196:	73 1f       	adc	r23, r19
    4198:	84 1f       	adc	r24, r20
    419a:	95 1f       	adc	r25, r21
    419c:	a0 1d       	adc	r26, r0
    419e:	08 95       	ret

000041a0 <calloc>:
    41a0:	0f 93       	push	r16
    41a2:	1f 93       	push	r17
    41a4:	cf 93       	push	r28
    41a6:	df 93       	push	r29
    41a8:	86 9f       	mul	r24, r22
    41aa:	80 01       	movw	r16, r0
    41ac:	87 9f       	mul	r24, r23
    41ae:	10 0d       	add	r17, r0
    41b0:	96 9f       	mul	r25, r22
    41b2:	10 0d       	add	r17, r0
    41b4:	11 24       	eor	r1, r1
    41b6:	c8 01       	movw	r24, r16
    41b8:	29 dc       	rcall	.-1966   	; 0x3a0c <malloc>
    41ba:	ec 01       	movw	r28, r24
    41bc:	00 97       	sbiw	r24, 0x00	; 0
    41be:	21 f0       	breq	.+8      	; 0x41c8 <calloc+0x28>
    41c0:	a8 01       	movw	r20, r16
    41c2:	60 e0       	ldi	r22, 0x00	; 0
    41c4:	70 e0       	ldi	r23, 0x00	; 0
    41c6:	09 d0       	rcall	.+18     	; 0x41da <memset>
    41c8:	ce 01       	movw	r24, r28
    41ca:	df 91       	pop	r29
    41cc:	cf 91       	pop	r28
    41ce:	1f 91       	pop	r17
    41d0:	0f 91       	pop	r16
    41d2:	08 95       	ret

000041d4 <__ctype_isfalse>:
    41d4:	99 27       	eor	r25, r25
    41d6:	88 27       	eor	r24, r24

000041d8 <__ctype_istrue>:
    41d8:	08 95       	ret

000041da <memset>:
    41da:	dc 01       	movw	r26, r24
    41dc:	01 c0       	rjmp	.+2      	; 0x41e0 <memset+0x6>
    41de:	6d 93       	st	X+, r22
    41e0:	41 50       	subi	r20, 0x01	; 1
    41e2:	50 40       	sbci	r21, 0x00	; 0
    41e4:	e0 f7       	brcc	.-8      	; 0x41de <memset+0x4>
    41e6:	08 95       	ret

000041e8 <_exit>:
    41e8:	f8 94       	cli

000041ea <__stop_program>:
    41ea:	ff cf       	rjmp	.-2      	; 0x41ea <__stop_program>
